(dp0
S'3C57'
p1
S'0201-115'
p2
sS'3C293'
p3
S'1352+314'
p4
sS'3C115'
p5
S'0423+348'
p6
sS'3C295'
p7
S'1411+522'
p8
sS'3C119'
p9
S'0432+416'
p10
sS'3C298'
p11
S'1419+064'
p12
sS'3C299'
p13
S'1421+417'
p14
sS'3C352'
p15
S'1710+460'
p16
sS'3C212'
p17
S'0858+141'
p18
sS'3C190'
p19
S'0801+142'
p20
sS'3C440'
p21
S'2203+626'
p22
sS'3C216'
p23
S'0909+428'
p24
sS'3C446'
p25
S'2225-049'
p26
sS'3C196'
p27
S'0813+482'
p28
sS'3C26'
p29
S'0054-035'
p30
sS'3C268.3'
p31
S'1206+642'
p32
sS'3C268.1'
p33
S'1200+730'
p34
sS'3C108'
p35
S'0412+230'
p36
sS'3C455'
p37
S'2255+132'
p38
sS'3C456'
p39
S'2312+093'
p40
sS'3C459'
p41
S'2316+040'
p42
sS'3C9'
p43
S'0020+156'
p44
sS'3C345'
p45
S'1642+398'
p46
sS'3C181'
p47
S'0728+146'
p48
sS'3C186'
p49
S'0744+378'
p50
sS'3C184'
p51
S'0739+703'
p52
sS'3C343'
p53
S'1634+627'
p54
sS'3C309.1'
p55
S'1459+716'
p56
sS'3C277.1'
p57
S'1252+565'
p58
sS'3C38'
p59
S'0120-153'
p60
sS'3C138'
p61
S'0521+166'
p62
sS'3C288.1'
p63
S'1342+603'
p64
sS'3C133'
p65
S'0502+252'
p66
sS'3C48'
p67
S'0137+331'
p68
sS'3C232'
p69
S'0958+324'
p70
sS'3C422'
p71
S'2047-026'
p72
sS'3C236'
p73
S'1006+349'
p74
sS'3C237'
p75
S'1008+075'
p76
sS'3C238'
p77
S'1011+064'
p78
sS'3C220.3'
p79
S'0939+832'
p80
sS'3C84'
p81
S'0319+415'
p82
sS'3C326.1'
p83
S'1556+200'
p84
sS'3C120'
p85
S'0433+053'
p86
sS'3C123'
p87
S'0437+296'
p88
sS'3C166'
p89
S'0645+213'
p90
sS'3C245'
p91
S'1042+120'
p92
sS'3C241'
p93
S'1021+219'
p94
sS'3C2'
p95
S'0006-000'
p96
sS'3C324'
p97
S'1549+214'
p98
sS'3C19'
p99
S'0040+331'
p100
sS'3C468.1'
p101
S'2350+646'
p102
sS'3C91'
p103
S'0336+057'
p104
sS'3C43'
p105
S'0129+236'
p106
sS'3C395'
p107
S'1902+319'
p108
sS'3C394'
p109
S'1859+129'
p110
sS'3C437.1'
p111
S'2150+148'
p112
sS'3C152'
p113
S'0604+203'
p114
sS'3C409'
p115
S'2021+233'
p116
sS'3C404'
p117
S'1956-076'
p118
sS'3C153'
p119
S'0609+480'
p120
sS'3C318'
p121
S'1520+202'
p122
sS'3C256'
p123
S'1120+234'
p124
sS'3C257'
p125
S'1123+055'
p126
sS'3C254'
p127
S'1114+406'
p128
sS'3C255'
p129
S'1119-030'
p130
sS'3C454.1'
p131
S'2250+714'
p132
sS'3C454.2'
p133
S'2251+188'
p134
sS'3C454.3'
p135
S'2253+161'
p136
sS'3C196.1'
p137
S'0815-031'
p138
sS'3C191'
p139
S'0804+102'
p140
sS'3C380'
p141
S'1829+487'
p142
sS'3C65'
p143
S'0223+400'
p144
sS'3C67'
p145
S'0224+278'
p146
sS'3C63'
p147
S'0220-019'
p148
sS'3C418'
p149
S'2038+513'
p150
sS'3C305'
p151
S'1449+632'
p152
sS'3C147'
p153
S'0542+498'
p154
sS'3C266'
p155
S'1145+497'
p156
sS'3C343.1'
p157
S'1638+625'
p158
sS'3C71'
p159
S'0242-000'
p160
sS'3C171'
p161
S'0655+541'
p162
sS'3C371'
p163
S'1806+698'
p164
sS'3C279'
p165
S'1256-057'
p166
sS'3C274'
p167
S'1230+123'
p168
sS'3C275'
p169
S'1242-047'
p170
sS'3C175.1'
p171
S'0714+146'
p172
sS'3C273'
p173
S'1229+020'
p174
sS'3C280'
p175
S'1256+473'
p176
sS'3C283'
p177
S'1311-222'
p178
sS'3C49'
p179
S'0141+138'
p180
sS'3C161'
p181
S'0627-058'
p182
sS'3C287'
p183
S'1330+251'
p184
sS'3C286'
p185
S'1331+305'
p186
sS'3C289'
p187
S'1345+497'
p188
sS'3C288'
p189
S'1338+388'
p190
sS'3C46'
p191
S'0135+081'
p192
sS'3C169'
p193
S'0651+691'
p194
sS'3C327.1'
p195
S'1604+012'
p196
sS'3C427'
p197
S'2104+765'
p198
sS'3C93.1'
p199
S'0348+338'
p200
sS'3C368'
p201
S'1805+110'
p202
sS'3C207'
p203
S'0840+132'
p204
s.