(dp0
S'3C309.1'
p1
(lp2
S'14h59m07.583867s'
p3
aS'71d40\'19.867740"'
p4
aS'1459+716'
p5
asS'3C380'
p6
(lp7
S'18h29m31.7832s'
p8
aS'48d44\'46.161"'
p9
aS'1829+487'
p10
asS'3C115'
p11
(lp12
S'04h23m53.2410s'
p13
aS'34d51\'44.540"'
p14
aS'0423+348'
p15
asS'3C138'
p16
(lp17
S'05h21m09.886021s'
p18
aS'16d38\'22.051220"'
p19
aS'0521+166'
p20
asS'3C119'
p21
(lp22
S'04h32m36.502609s'
p23
aS'41d38\'28.448550"'
p24
aS'0432+416'
p25
asS'3C298'
p26
(lp27
S'14h19m08.180173s'
p28
aS'06d28\'34.803490"'
p29
aS'1419+064'
p30
asS'3C395'
p31
(lp32
S'19h02m55.938870s'
p33
aS'31d59\'41.702090"'
p34
aS'1902+319'
p35
asS'3C48'
p36
(lp37
S'01h37m41.299431s'
p38
aS'33d09\'35.132990"'
p39
aS'0137+331'
p40
asS'3C232'
p41
(lp42
S'09h58m20.949621s'
p43
aS'32d24\'02.209290"'
p44
aS'0958+324'
p45
asS'3C236'
p46
(lp47
S'10h06m01.7500s'
p48
aS'34d54\'10.400"'
p49
aS'1006+349'
p50
asS'3C238'
p51
(lp52
S'10h11m00.3600s'
p53
aS'06d24\'40.200"'
p54
aS'1011+064'
p55
asS'3C256'
p56
(lp57
S'11h20m43.0480s'
p58
aS'23d27\'54.940"'
p59
aS'1120+234'
p60
asS'3C371'
p61
(lp62
S'18h06m50.680650s'
p63
aS'69d49\'28.108520"'
p64
aS'1806+698'
p65
asS'3C279'
p66
(lp67
S'12h56m11.166560s'
p68
aS'-05d47\'21.524580"'
p69
aS'1256-057'
p70
asS'3C454.3'
p71
(lp72
S'22h53m57.747932s'
p73
aS'16d08\'53.560890"'
p74
aS'2253+161'
p75
asS'3C274'
p76
(lp77
S'12h30m49.423381s'
p78
aS'12d23\'28.043930"'
p79
aS'1230+123'
p80
asS'3C275'
p81
(lp82
S'12h42m19.6650s'
p83
aS'-04d46\'20.710"'
p84
aS'1242-047'
p85
asS'3C216'
p86
(lp87
S'09h09m33.4970s'
p88
aS'42d53\'46.480"'
p89
aS'0909+428'
p90
asS'3C446'
p91
(lp92
S'22h25m47.259291s'
p93
aS'-04d57\'01.390730"'
p94
aS'2225-049'
p95
asS'3C273'
p96
(lp97
S'12h29m06.699729s'
p98
aS'02d03\'08.598190"'
p99
aS'1229+020'
p100
asS'3C84'
p101
(lp102
S'03h19m48.160102s'
p103
aS'41d30\'42.103050"'
p104
aS'0319+415'
p105
asS'3C286'
p106
(lp107
S'13h31m08.287984s'
p108
aS'30d30\'32.958850"'
p109
aS'1331+305'
p110
asS'3C120'
p111
(lp112
S'04h33m11.095535s'
p113
aS'05d21\'15.619420"'
p114
aS'0433+053'
p115
asS'3C65'
p116
(lp117
S'02h23m43.0900s'
p118
aS'40d00\'53.000"'
p119
aS'0223+400'
p120
asS'3C108'
p121
(lp122
S'04h12m43.666851s'
p123
aS'23d05\'05.452990"'
p124
aS'0412+230'
p125
asS'3C123'
p126
(lp127
S'04h37m04.3750s'
p128
aS'29d40\'13.820"'
p129
aS'0437+296'
p130
asS'3C63'
p131
(lp132
S'02h20m54.2800s'
p133
aS'-01d56\'51.800"'
p134
aS'0220-019'
p135
asS'3C418'
p136
(lp137
S'20h38m37.034755s'
p138
aS'51d19\'12.662690"'
p139
aS'2038+513'
p140
asS'3C147'
p141
(lp142
S'05h42m36.137916s'
p143
aS'49d51\'07.233560"'
p144
aS'0542+498'
p145
asS'3C166'
p146
(lp147
S'06h45m24.099508s'
p148
aS'21d21\'51.201600"'
p149
aS'0645+213'
p150
asS'3C245'
p151
(lp152
S'10h42m44.605212s'
p153
aS'12d03\'31.264070"'
p154
aS'1042+120'
p155
asS'3C9'
p156
(lp157
S'00h20m25.3180s'
p158
aS'15d40\'52.700"'
p159
aS'0020+156'
p160
asS'3C345'
p161
(lp162
S'16h42m58.809951s'
p163
aS'39d48\'36.993950"'
p164
aS'1642+398'
p165
asS'3C207'
p166
(lp167
S'08h40m47.5890s'
p168
aS'13d12\'23.5600"'
p169
aS'0840+132'
p170
as.