(dp0
S'0620+389'
p1
S'0624+389'
p2
sS'1145+268'
p3
S'1147+265'
p4
sS'0847+379'
p5
S'0850+377'
p6
sS'0908+340'
p7
S'0911+338'
p8
sS'1738+476'
p9
S'1739+476'
p10
sS'1729-373'
p11
S'1733-373'
p12
sS'0502+049'
p13
S'0505+049'
p14
sS'1647+065'
p15
S'1649+064'
p16
sS'2146-133'
p17
S'2149-130'
p18
sS'1125+596'
p19
S'1128+594'
p20
sS'0237+185'
p21
S'0240+188'
p22
sS'1916+062'
p23
S'1919+063'
p24
sS'0409+229'
p25
S'0412+230'
p26
sS'1738+499'
p27
S'1739+499'
p28
sS'2320+506'
p29
S'2322+509'
p30
sS'0136+176'
p31
S'0139+178'
p32
sS'1221+809'
p33
S'1223+806'
p34
sS'0751+485'
p35
S'0754+483'
p36
sS'1646+042'
p37
S'1649+042'
p38
sS'0119+041'
p39
S'0121+043'
p40
sS'1547+215'
p41
S'1549+214'
p42
sS'2254+074'
p43
S'2257+077'
p44
sS'0602+096'
p45
S'0605+096'
p46
sS'1124-186'
p47
S'1127-189'
p48
sS'0613+570'
p49
S'0617+570'
p50
sS'0547+234'
p51
S'0550+234'
p52
sS'0746+483'
p53
S'0750+482'
p54
sS'2310+724'
p55
S'2312+726'
p56
sS'1436+763'
p57
S'1435+760'
p58
sS'2151+431'
p59
S'2153+433'
p60
sS'0111+131'
p61
S'0113+134'
p62
sS'2305+198'
p63
S'2308+201'
p64
sS'2251+006'
p65
S'2254+009'
p66
sS'1404+286'
p67
S'1407+284'
p68
sS'0916+864'
p69
S'0929+862'
p70
sS'0237-233'
p71
S'0240-231'
p72
sS'1526+670'
p73
S'1526+668'
p74
sS'0249+383'
p75
S'0253+385'
p76
sS'1850+402'
p77
S'1852+403'
p78
sS'0200+539'
p79
S'0203+541'
p80
sS'0322+222'
p81
S'0325+226'
p82
sS'1424-418'
p83
S'1427-421'
p84
sS'1338+381'
p85
S'1340+379'
p86
sS'1200+608'
p87
S'1203+605'
p88
sS'0429+174'
p89
S'0431+175'
p90
sS'0043+246'
p91
S'0046+249'
p92
sS'0051+679'
p93
S'0054+681'
p94
sS'0834-201'
p95
S'0836-202'
p96
sS'0155-109'
p97
S'0157-107'
p98
sS'0220-349'
p99
S'0222-346'
p100
sS'0544+273'
p101
S'0547+273'
p102
sS'2351-154'
p103
S'2354-152'
p104
sS'1045+011'
p105
S'1048+009'
p106
sS'0212+735'
p107
S'0217+738'
p108
sS'0437+145'
p109
S'0440+146'
p110
sS'1409+218'
p111
S'1411+215'
p112
sS'1448+093'
p113
S'1450+091'
p114
sS'1856+737'
p115
S'1854+738'
p116
sS'1645+224'
p117
S'1648+224'
p118
sS'0949+354'
p119
S'0952+352'
p120
sS'1649+063'
p121
S'1652+063'
p122
sS'0133+476'
p123
S'0136+478'
p124
sS'2357-318'
p125
S'2359-315'
p126
sS'1851+488'
p127
S'1852+489'
p128
sS'1138+644'
p129
S'1141+641'
p130
sS'1005+066'
p131
S'1008+063'
p132
sS'1001+329'
p133
S'1003+327'
p134
sS'1553+113'
p135
S'1555+111'
p136
sS'1003+351'
p137
S'1006+349'
p138
sS'1032-199'
p139
S'1035-201'
p140
sS'0244+327'
p141
S'0247+329'
p142
sS'1016-311'
p143
S'1018-313'
p144
sS'0114-211'
p145
S'0116-208'
p146
sS'0422+578'
p147
S'0426+579'
p148
sS'0738+272'
p149
S'0741+271'
p150
sS'2051+745'
p151
S'2051+746'
p152
sS'1748-253'
p153
S'1751-253'
p154
sS'2233-148'
p155
S'2236-145'
p156
sS'1038+064'
p157
S'1041+061'
p158
sS'0358+210'
p159
S'0401+211'
p160
sS'1705+135'
p161
S'1707+135'
p162
sS'1553+202'
p163
S'1556+200'
p164
sS'2253+417'
p165
S'2255+420'
p166
sS'1300+693'
p167
S'1302+690'
p168
sS'0223+774'
p169
S'0229+777'
p170
sS'0116+082'
p171
S'0119+084'
p172
sS'0950+748'
p173
S'0954+745'
p174
sS'1140+223'
p175
S'1143+221'
p176
sS'0708+742'
p177
S'0714+741'
p178
sS'1936+714'
p179
S'1936+715'
p180
sS'1641+399'
p181
S'1642+398'
p182
sS'1124+571'
p183
S'1127+568'
p184
sS'1258+507'
p185
S'1300+506'
p186
sS'2216-281'
p187
S'2219-279'
p188
sS'2210-257'
p189
S'2213-254'
p190
sS'1924+420'
p191
S'1926+421'
p192
sS'0747+185'
p193
S'0750+183'
p194
sS'1657-298'
p195
S'1701-299'
p196
sS'0941-080'
p197
S'0943-083'
p198
sS'1522+155'
p199
S'1524+153'
p200
sS'0733-174'
p201
S'0735-175'
p202
sS'1225+317'
p203
S'1228+314'
p204
sS'0652+426'
p205
S'0656+426'
p206
sS'0736-303'
p207
S'0738-304'
p208
sS'1811+430'
p209
S'1813+430'
p210
sS'1458-391'
p211
S'1501-396'
p212
sS'0140+412'
p213
S'0143+414'
p214
sS'0654+244'
p215
S'0657+243'
p216
sS'0123+257'
p217
S'0126+259'
p218
sS'2023+336'
p219
S'2025+337'
p220
sS'0352+605'
p221
S'0356+607'
p222
sS'1222+216'
p223
S'1224+213'
p224
sS'2230+114'
p225
S'2232+117'
p226
sS'2201+171'
p227
S'2203+174'
p228
sS'1946-200'
p229
S'1949-199'
p230
sS'1334-127'
p231
S'1337-129'
p232
sS'1350+316'
p233
S'1352+314'
p234
sS'1522+791'
p235
S'1521+789'
p236
sS'1026+055'
p237
S'1029+053'
p238
sS'1657+265'
p239
S'1659+264'
p240
sS'0017+257'
p241
S'0019+260'
p242
sS'2346+052'
p243
S'2349+055'
p244
sS'2149-287'
p245
S'2152-284'
p246
sS'1355+441'
p247
S'1357+438'
p248
sS'1418+546'
p249
S'1419+543'
p250
sS'1710-269'
p251
S'1713-269'
p252
sS'2050+161'
p253
S'2052+163'
p254
sS'0010+463'
p255
S'0013+466'
p256
sS'2054-377'
p257
S'2057-375'
p258
sS'0127+233'
p259
S'0129+236'
p260
sS'1709+460'
p261
S'1710+460'
p262
sS'0025+197'
p263
S'0028+200'
p264
sS'1145-071'
p265
S'1147-074'
p266
sS'1458+718'
p267
S'1459+716'
p268
sS'0239+175'
p269
S'0242+177'
p270
sS'2029+121'
p271
S'2031+123'
p272
sS'1034+288'
p273
S'1037+285'
p274
sS'0406+065'
p275
S'0409+066'
p276
sS'2246+208'
p277
S'2249+211'
p278
sS'1822+012'
p279
S'1824+013'
p280
sS'1946+358'
p281
S'1948+359'
p282
sS'1320-446'
p283
S'1323-448'
p284
sS'0556+238'
p285
S'0559+238'
p286
sS'0749+376'
p287
S'0752+375'
p288
sS'1349-439'
p289
S'1352-442'
p290
sS'1741+196'
p291
S'1743+195'
p292
sS'0427-345'
p293
S'0429-344'
p294
sS'0405-331'
p295
S'0407-330'
p296
sS'2055+508'
p297
S'2057+509'
p298
sS'0531+194'
p299
S'0534+194'
p300
sS'0451-282'
p301
S'0453-281'
p302
sS'0147-076'
p303
S'0150-074'
p304
sS'0051-038'
p305
S'0054-035'
p306
sS'1637+826'
p307
S'1632+825'
p308
sS'1719+356'
p309
S'1721+357'
p310
sS'0538+474'
p311
S'0541+474'
p312
sS'0440+345'
p313
S'0443+346'
p314
sS'1938+371'
p315
S'1939+372'
p316
sS'0958+346'
p317
S'1001+344'
p318
sS'0850-206'
p319
S'0853-207'
p320
sS'0838+133'
p321
S'0840+132'
p322
sS'0548+378'
p323
S'0552+379'
p324
sS'0511+009'
p325
S'0513+010'
p326
sS'2316+862'
p327
S'2315+865'
p328
sS'1128+385'
p329
S'1130+382'
p330
sS'0235+164'
p331
S'0238+166'
p332
sS'1019+309'
p333
S'1022+306'
p334
sS'0742+792'
p335
S'0750+791'
p336
sS'0820+560'
p337
S'0824+558'
p338
sS'0339+651'
p339
S'0344+653'
p340
sS'1826+264'
p341
S'1828+264'
p342
sS'2345-167'
p343
S'2348-165'
p344
sS'0546+726'
p345
S'0552+726'
p346
sS'0420+022'
p347
S'0422+023'
p348
sS'1810-068'
p349
S'1812-068'
p350
sS'1436+373'
p351
S'1438+371'
p352
sS'1726+769'
p353
S'1723+768'
p354
sS'1822-173'
p355
S'1825-173'
p356
sS'1218+444'
p357
S'1221+441'
p358
sS'2210+016'
p359
S'2212+018'
p360
sS'0202+319'
p361
S'0205+322'
p362
sS'0723-008'
p363
S'0725-009'
p364
sS'1311+678'
p365
S'1313+675'
p366
sS'2144+092'
p367
S'2147+094'
p368
sS'1743+173'
p369
S'1745+173'
p370
sS'0406+386'
p371
S'0409+388'
p372
sS'0912+297'
p373
S'0915+295'
p374
sS'1732+094'
p375
S'1734+094'
p376
sS'1413+135'
p377
S'1415+133'
p378
sS'1018-426'
p379
S'1020-428'
p380
sS'1146+596'
p381
S'1148+594'
p382
sS'1508+572'
p383
S'1510+570'
p384
sS'0639+352'
p385
S'0642+351'
p386
sS'1040+244'
p387
S'1043+241'
p388
sS'0332-403'
p389
S'0334-401'
p390
sS'0742+333'
p391
S'0745+332'
p392
sS'0023-263'
p393
S'0025-260'
p394
sS'2149+056'
p395
S'2151+058'
p396
sS'1111+149'
p397
S'1113+147'
p398
sS'0159+418'
p399
S'0202+420'
p400
sS'0519-208'
p401
S'0521-207'
p402
sS'0843-259'
p403
S'0846-261'
p404
sS'0100+151'
p405
S'0103+154'
p406
sS'1557+565'
p407
S'1558+564'
p408
sS'1732+389'
p409
S'1734+389'
p410
sS'2214+241'
p411
S'2217+243'
p412
sS'0826-373'
p413
S'0828-375'
p414
sS'0340+362'
p415
S'0343+363'
p416
sS'0256+054'
p417
S'0258+056'
p418
sS'0405+305'
p419
S'0408+305'
p420
sS'1223+395'
p421
S'1225+392'
p422
sS'1402+660'
p423
S'1404+658'
p424
sS'1749+293'
p425
S'1751+293'
p426
sS'2135-248'
p427
S'2138-246'
p428
sS'0607-157'
p429
S'0609-157'
p430
sS'1204+399'
p431
S'1206+396'
p432
sS'2128-208'
p433
S'2131-206'
p434
sS'0735+178'
p435
S'0738+177'
p436
sS'2157+213'
p437
S'2200+216'
p438
sS'0438-436'
p439
S'0440-435'
p440
sS'1258+287'
p441
S'1300+285'
p442
sS'1656-075'
p443
S'1658-076'
p444
sS'1142+052'
p445
S'1145+049'
p446
sS'0428+314'
p447
S'0432+315'
p448
sS'0059+581'
p449
S'0102+584'
p450
sS'0122-003'
p451
S'0125-000'
p452
sS'2015+657'
p453
S'2015+659'
p454
sS'1104+167'
p455
S'1107+164'
p456
sS'1717-358'
p457
S'1720-358'
p458
sS'1606+403'
p459
S'1608+402'
p460
sS'2111-259'
p461
S'2114-256'
p462
sS'0833+276'
p463
S'0836+274'
p464
sS'1123+264'
p465
S'1125+261'
p466
sS'1306+360'
p467
S'1308+357'
p468
sS'0533+446'
p469
S'0537+446'
p470
sS'0206+136'
p471
S'0209+138'
p472
sS'0548+084'
p473
S'0551+084'
p474
sS'0349+727'
p475
S'0354+729'
p476
sS'0513+455'
p477
S'0517+456'
p478
sS'1602+014'
p479
S'1604+012'
p480
sS'0506+056'
p481
S'0509+056'
p482
sS'0012+610'
p483
S'0014+612'
p484
sS'1542+042'
p485
S'1544+041'
p486
sS'2059+034'
p487
S'2101+036'
p488
sS'1622+665'
p489
S'1623+664'
p490
sS'0223+341'
p491
S'0226+343'
p492
sS'1656+477'
p493
S'1658+476'
p494
sS'2128+165'
p495
S'2130+167'
p496
sS'2324+151'
p497
S'2327+154'
p498
sS'0302+625'
p499
S'0306+627'
p500
sS'1203-262'
p501
S'1205-265'
p502
sS'0902+290'
p503
S'0905+288'
p504
sS'1317+520'
p505
S'1319+518'
p506
sS'2235+731'
p507
S'2236+733'
p508
sS'2238+512'
p509
S'2240+515'
p510
sS'2314+160'
p511
S'2316+163'
p512
sS'2241+406'
p513
S'2244+409'
p514
sS'1745+085'
p515
S'1748+085'
p516
sS'2337+264'
p517
S'2340+266'
p518
sS'2110-352'
p519
S'2114-350'
p520
sS'1920+154'
p521
S'1922+155'
p522
sS'1734+508'
p523
S'1735+508'
p524
sS'1254+476'
p525
S'1256+473'
p526
sS'1954-388'
p527
S'1957-387'
p528
sS'1227+587'
p529
S'1230+585'
p530
sS'2145+067'
p531
S'2148+069'
p532
sS'1537+279'
p533
S'1539+277'
p534
sS'1108+201'
p535
S'1111+199'
p536
sS'0139-273'
p537
S'0141-271'
p538
sS'2250+194'
p539
S'2253+197'
p540
sS'2331+073'
p541
S'2334+076'
p542
sS'0614-349'
p543
S'0616-349'
p544
sS'2021+614'
p545
S'2022+616'
p546
sS'0021+243'
p547
S'0024+246'
p548
sS'1019+429'
p549
S'1022+426'
p550
sS'2100+468'
p551
S'2102+470'
p552
sS'1236+077'
p553
S'1239+075'
p554
sS'0111+481'
p555
S'0114+483'
p556
sS'0602+673'
p557
S'0607+673'
p558
sS'0326+277'
p559
S'0329+279'
p560
sS'2223-052'
p561
S'2225-049'
p562
sS'1100+122'
p563
S'1103+119'
p564
sS'1845+797'
p565
S'1842+797'
p566
sS'2344+092'
p567
S'2346+095'
p568
sS'0341+158'
p569
S'0344+159'
p570
sS'1252+028'
p571
S'1254+025'
p572
sS'1148-001'
p573
S'1150-003'
p574
sS'1045-188'
p575
S'1048-191'
p576
sS'0406+121'
p577
S'0409+122'
p578
sS'0509+152'
p579
S'0512+152'
p580
sS'1932+204'
p581
S'1935+205'
p582
sS'2309+454'
p583
S'2311+457'
p584
sS'0537-286'
p585
S'0539-286'
p586
sS'0111+021'
p587
S'0113+023'
p588
sS'0954+658'
p589
S'0958+655'
p590
sS'0805+053'
p591
S'0808+052'
p592
sS'0439-337'
p593
S'0441-336'
p594
sS'0153+744'
p595
S'0157+747'
p596
sS'0858-279'
p597
S'0900-281'
p598
sS'1428+370'
p599
S'1430+368'
p600
sS'0818+291'
p601
S'0821+289'
p602
sS'1822+682'
p603
S'1821+683'
p604
sS'0536+145'
p605
S'0539+145'
p606
sS'2342+821'
p607
S'2344+824'
p608
sS'0759+183'
p609
S'0802+181'
p610
sS'2105+420'
p611
S'2107+422'
p612
sS'1742-289'
p613
S'1745-290'
p614
sS'1808-209'
p615
S'1811-209'
p616
sS'0615+820'
p617
S'0626+820'
p618
sS'1831-126'
p619
S'1834-126'
p620
sS'0415+572'
p621
S'0419+573'
p622
sS'0108-079'
p623
S'0110-076'
p624
sS'0109+224'
p625
S'0112+227'
p626
sS'2007+777'
p627
S'2005+778'
p628
sS'1901+319'
p629
S'1902+319'
p630
sS'0317+659'
p631
S'0322+661'
p632
sS'1020+400'
p633
S'1023+398'
p634
sS'1352+757'
p635
S'1353+755'
p636
sS'1116-027'
p637
S'1119-030'
p638
sS'0534-340'
p639
S'0536-340'
p640
sS'1356+478'
p641
S'1358+476'
p642
sS'0150-334'
p643
S'0153-331'
p644
sS'1603+573'
p645
S'1604+572'
p646
sS'0834+250'
p647
S'0837+249'
p648
sS'1950+253'
p649
S'1952+254'
p650
sS'0250+508'
p651
S'0253+510'
p652
sS'0515+067'
p653
S'0517+068'
p654
sS'2005+372'
p655
S'2007+373'
p656
sS'0828+493'
p657
S'0832+492'
p658
sS'0118-272'
p659
S'0120-270'
p660
sS'0820+225'
p661
S'0823+223'
p662
sS'1342+663'
p663
S'1344+661'
p664
sS'0437-454'
p665
S'0439-453'
p666
sS'1955+335'
p667
S'1957+336'
p668
sS'0603+476'
p669
S'0607+476'
p670
sS'2211-388'
p671
S'2214-385'
p672
sS'2058-297'
p673
S'2101-295'
p674
sS'0555+378'
p675
S'0559+378'
p676
sS'0114+140'
p677
S'0117+143'
p678
sS'0011+189'
p679
S'0013+191'
p680
sS'1217+295'
p681
S'1220+292'
p682
sS'0310-150'
p683
S'0312-148'
p684
sS'0420+417'
p685
S'0423+418'
p686
sS'1656+482'
p687
S'1657+481'
p688
sS'0157+808'
p689
S'0203+811'
p690
sS'0327+467'
p691
S'0330+469'
p692
sS'0906+015'
p693
S'0909+013'
p694
sS'1834+612'
p695
S'1835+613'
p696
sS'1616+063'
p697
S'1619+062'
p698
sS'0336+473'
p699
S'0340+475'
p700
sS'1621+058'
p701
S'1624+057'
p702
sS'0422+178'
p703
S'0425+179'
p704
sS'2330+083'
p705
S'2332+086'
p706
sS'0147+187'
p707
S'0149+189'
p708
sS'1115+416'
p709
S'1117+413'
p710
sS'1821+107'
p711
S'1824+107'
p712
sS'0511-220'
p713
S'0513-219'
p714
sS'1016+635'
p715
S'1019+633'
p716
sS'1044+719'
p717
S'1048+717'
p718
sS'1954+282'
p719
S'1956+283'
p720
sS'1456+375'
p721
S'1458+373'
p722
sS'1833+326'
p723
S'1835+326'
p724
sS'1358+624'
p725
S'1400+621'
p726
sS'0653+694'
p727
S'0658+693'
p728
sS'2050+364'
p729
S'2052+365'
p730
sS'2229+695'
p731
S'2230+697'
p732
sS'0604+728'
p733
S'0610+728'
p734
sS'0627+532'
p735
S'0631+531'
p736
sS'0738+491'
p737
S'0742+490'
p738
sS'0737+289'
p739
S'0740+288'
p740
sS'1417+375'
p741
S'1420+373'
p742
sS'0321+340'
p743
S'0324+341'
p744
sS'0829+046'
p745
S'0831+044'
p746
sS'1815-111'
p747
S'1818-111'
p748
sS'0036-216'
p749
S'0038-213'
p750
sS'0952+179'
p751
S'0954+177'
p752
sS'1144-379'
p753
S'1147-382'
p754
sS'0459+415'
p755
S'0502+416'
p756
sS'0246+061'
p757
S'0249+063'
p758
sS'1742+402'
p759
S'1744+402'
p760
sS'1602+576'
p761
S'1603+575'
p762
sS'1127-145'
p763
S'1130-148'
p764
sS'0002+541'
p765
S'0005+544'
p766
sS'2302+232'
p767
S'2304+235'
p768
sS'1118+237'
p769
S'1120+234'
p770
sS'0514+474'
p771
S'0518+475'
p772
sS'2245+029'
p773
S'2247+031'
p774
sS'1805+616'
p775
S'1806+616'
p776
sS'0906+163'
p777
S'0908+161'
p778
sS'2300-307'
p779
S'2303-305'
p780
sS'2324+148'
p781
S'2326+151'
p782
sS'0132+079'
p783
S'0135+081'
p784
sS'2335-027'
p785
S'2337-025'
p786
sS'0039+568'
p787
S'0042+571'
p788
sS'1741-038'
p789
S'1743-038'
p790
sS'0517+454'
p791
S'0520+454'
p792
sS'1502+036'
p793
S'1505+034'
p794
sS'0755+117'
p795
S'0758+116'
p796
sS'0700-101'
p797
S'0702-102'
p798
sS'1250+532'
p799
S'1253+530'
p800
sS'1347+539'
p801
S'1349+536'
p802
sS'1936+046'
p803
S'1938+048'
p804
sS'1625+123'
p805
S'1627+122'
p806
sS'1143-287'
p807
S'1146-289'
p808
sS'1200+483'
p809
S'1203+480'
p810
sS'1812+560'
p811
S'1812+560'
p812
sS'0955+327'
p813
S'0958+324'
p814
sS'1216+487'
p815
S'1219+484'
p816
sS'1849+005'
p817
S'1851+005'
p818
sS'2305-418'
p819
S'2307-415'
p820
sS'0037+011'
p821
S'0040+014'
p822
sS'0237-027'
p823
S'0239-025'
p824
sS'1305+502'
p825
S'1308+499'
p826
sS'1714+219'
p827
S'1716+218'
p828
sS'0651+542'
p829
S'0655+541'
p830
sS'1801+095'
p831
S'1803+095'
p832
sS'0622+147'
p833
S'0625+146'
p834
sS'0812-355'
p835
S'0814-356'
p836
sS'0356+322'
p837
S'0359+323'
p838
sS'2230+625'
p839
S'2232+628'
p840
sS'1048-313'
p841
S'1051-316'
p842
sS'0927+352'
p843
S'0930+350'
p844
sS'2309+090'
p845
S'2312+093'
p846
sS'0509+011'
p847
S'0511+011'
p848
sS'2128-123'
p849
S'2131-121'
p850
sS'1308-220'
p851
S'1311-222'
p852
sS'2320-035'
p853
S'2323-032'
p854
sS'0044+566'
p855
S'0047+569'
p856
sS'0644+491'
p857
S'0648+491'
p858
sS'1313-333'
p859
S'1316-336'
p860
sS'0414+548'
p861
S'0418+549'
p862
sS'2013+340'
p863
S'2015+341'
p864
sS'0609+607'
p865
S'0614+607'
p866
sS'1004+141'
p867
S'1007+139'
p868
sS'1607+563'
p869
S'1608+562'
p870
sS'1442+101'
p871
S'1445+099'
p872
sS'1943+546'
p873
S'1944+548'
p874
sS'1338+285'
p875
S'1341+282'
p876
sS'2254+024'
p877
S'2257+027'
p878
sS'0959+105'
p879
S'1001+102'
p880
sS'2150+173'
p881
S'2152+175'
p882
sS'2044-027'
p883
S'2047-026'
p884
sS'0458+138'
p885
S'0501+139'
p886
sS'0600+177'
p887
S'0603+177'
p888
sS'1615+029'
p889
S'1617+027'
p890
sS'1548+056'
p891
S'1550+054'
p892
sS'2124+641'
p893
S'2125+643'
p894
sS'1819-131'
p895
S'1822-131'
p896
sS'1459+481'
p897
S'1500+478'
p898
sS'1128+090'
p899
S'1130+087'
p900
sS'2021+317'
p901
S'2023+318'
p902
sS'0800+618'
p903
S'0805+617'
p904
sS'0334+056'
p905
S'0336+057'
p906
sS'1654+185'
p907
S'1656+184'
p908
sS'2344+429'
p909
S'2347+431'
p910
sS'1101-325'
p911
S'1103-328'
p912
sS'0907+022'
p913
S'0909+020'
p914
sS'0133-203'
p915
S'0135-201'
p916
sS'1525+314'
p917
S'1527+312'
p918
sS'0434+299'
p919
S'0438+300'
p920
sS'2229+539'
p921
S'2231+541'
p922
sS'0008+704'
p923
S'0011+707'
p924
sS'1517+204'
p925
S'1520+202'
p926
sS'0819+408'
p927
S'0822+406'
p928
sS'0758+143'
p929
S'0801+142'
p930
sS'1958+103'
p931
S'2001+104'
p932
sS'1130+009'
p933
S'1133+006'
p934
sS'0338-214'
p935
S'0340-213'
p936
sS'1601+160'
p937
S'1603+159'
p938
sS'1130+005'
p939
S'1133+002'
p940
sS'1958-179'
p941
S'2000-178'
p942
sS'1928+154'
p943
S'1930+155'
p944
sS'2341+535'
p945
S'2343+538'
p946
sS'0134+329'
p947
S'0137+331'
p948
sS'1408+077'
p949
S'1410+075'
p950
sS'1038+528'
p951
S'1041+525'
p952
sS'0448-392'
p953
S'0449-391'
p954
sS'0254+185'
p955
S'0257+187'
p956
sS'0821+248'
p957
S'0824+246'
p958
sS'0804+499'
p959
S'0808+498'
p960
sS'0656+082'
p961
S'0659+082'
p962
sS'1336+391'
p963
S'1338+388'
p964
sS'1245-197'
p965
S'1248-199'
p966
sS'2323-407'
p967
S'2326-404'
p968
sS'1747+433'
p969
S'1749+433'
p970
sS'0940+172'
p971
S'0943+170'
p972
sS'0829+187'
p973
S'0832+185'
p974
sS'2337-334'
p975
S'2339-331'
p976
sS'0610+260'
p977
S'0613+260'
p978
sS'1436-167'
p979
S'1439-169'
p980
sS'0942+358'
p981
S'0945+355'
p982
sS'1512+030'
p983
S'1514+028'
p984
sS'0002+200'
p985
S'0004+203'
p986
sS'1841+131'
p987
S'1844+132'
p988
sS'2037-253'
p989
S'2040-251'
p990
sS'0850+581'
p991
S'0854+579'
p992
sS'1821+114'
p993
S'1824+114'
p994
sS'2152+226'
p995
S'2155+228'
p996
sS'1413+373'
p997
S'1415+371'
p998
sS'2154+482'
p999
S'2156+485'
p1000
sS'0918+082'
p1001
S'0921+080'
p1002
sS'2320+079'
p1003
S'2322+082'
p1004
sS'1349-145'
p1005
S'1351-148'
p1006
sS'0824+524'
p1007
S'0827+522'
p1008
sS'2240-260'
p1009
S'2243-257'
p1010
sS'1849+499'
p1011
S'1850+499'
p1012
sS'0851+075'
p1013
S'0854+073'
p1014
sS'2207+356'
p1015
S'2209+359'
p1016
sS'1104-445'
p1017
S'1107-448'
p1018
sS'2227-088'
p1019
S'2229-085'
p1020
sS'1752-225'
p1021
S'1755-225'
p1022
sS'1117+146'
p1023
S'1120+143'
p1024
sS'2343+657'
p1025
S'2345+659'
p1026
sS'0736-332'
p1027
S'0738-333'
p1028
sS'0345+460'
p1029
S'0349+461'
p1030
sS'1204+281'
p1031
S'1207+279'
p1032
sS'1226+373'
p1033
S'1228+371'
p1034
sS'0532+506'
p1035
S'0536+506'
p1036
sS'1031+567'
p1037
S'1035+564'
p1038
sS'2050+226'
p1039
S'2053+228'
p1040
sS'1350+148'
p1041
S'1353+145'
p1042
sS'1246+206'
p1043
S'1248+203'
p1044
sS'1924+507'
p1045
S'1926+508'
p1046
sS'1531+722'
p1047
S'1531+721'
p1048
sS'1423+146'
p1049
S'1425+144'
p1050
sS'0248+430'
p1051
S'0251+432'
p1052
sS'0436+306'
p1053
S'0439+307'
p1054
sS'0733+597'
p1055
S'0737+596'
p1056
sS'1815+614'
p1057
S'1815+614'
p1058
sS'1219+044'
p1059
S'1222+042'
p1060
sS'0529+483'
p1061
S'0533+483'
p1062
sS'0138-097'
p1063
S'0141-094'
p1064
sS'2152+172'
p1065
S'2154+174'
p1066
sS'1827+062'
p1067
S'1830+063'
p1068
sS'1643-223'
p1069
S'1646-224'
p1070
sS'2147+145'
p1071
S'2150+148'
p1072
sS'1149+499'
p1073
S'1152+496'
p1074
sS'1432+200'
p1075
S'1434+198'
p1076
sS'0021+464'
p1077
S'0024+467'
p1078
sS'2259-375'
p1079
S'2302-373'
p1080
sS'2338+132'
p1081
S'2340+135'
p1082
sS'0706-113'
p1083
S'0709-114'
p1084
sS'1232-416'
p1085
S'1235-418'
p1086
sS'0749+540'
p1087
S'0753+538'
p1088
sS'2310+385'
p1089
S'2312+387'
p1090
sS'1324+224'
p1091
S'1327+221'
p1092
sS'0336-019'
p1093
S'0339-017'
p1094
sS'1809+568'
p1095
S'1810+567'
p1096
sS'1741-312'
p1097
S'1744-312'
p1098
sS'1019+222'
p1099
S'1021+219'
p1100
sS'0415+379'
p1101
S'0418+380'
p1102
sS'1420+326'
p1103
S'1422+323'
p1104
sS'1520+319'
p1105
S'1522+317'
p1106
sS'1902+556'
p1107
S'1903+556'
p1108
sS'0037+487'
p1109
S'0039+490'
p1110
sS'0700-007'
p1111
S'0703-008'
p1112
sS'1015+359'
p1113
S'1018+357'
p1114
sS'1819-096'
p1115
S'1822-096'
p1116
sS'1219+285'
p1117
S'1221+282'
p1118
sS'2158+029'
p1119
S'2201+032'
p1120
sS'1922+155'
p1121
S'1924+156'
p1122
sS'2000-330'
p1123
S'2003-328'
p1124
sS'0825-202'
p1125
S'0827-204'
p1126
sS'0632+502'
p1127
S'0636+501'
p1128
sS'0037+139'
p1129
S'0039+141'
p1130
sS'1324+574'
p1131
S'1326+572'
p1132
sS'0208+106'
p1133
S'0211+108'
p1134
sS'2358+189'
p1135
S'0001+192'
p1136
sS'0142-278'
p1137
S'0145-275'
p1138
sS'1629+680'
p1139
S'1629+679'
p1140
sS'1207+184'
p1141
S'1209+181'
p1142
sS'0707+476'
p1143
S'0710+475'
p1144
sS'2134+004'
p1145
S'2136+006'
p1146
sS'0849+287'
p1147
S'0852+285'
p1148
sS'0001+459'
p1149
S'0004+462'
p1150
sS'0437+273'
p1151
S'0440+274'
p1152
sS'1803+784'
p1153
S'1800+784'
p1154
sS'1433+304'
p1155
S'1435+302'
p1156
sS'0435+487'
p1157
S'0438+488'
p1158
sS'2249+185'
p1159
S'2251+188'
p1160
sS'2044-168'
p1161
S'2047-166'
p1162
sS'0653-033'
p1163
S'0656-033'
p1164
sS'1307+562'
p1165
S'1309+559'
p1166
sS'1540-077'
p1167
S'1543-079'
p1168
sS'0727-115'
p1169
S'0730-116'
p1170
sS'0311+430'
p1171
S'0314+432'
p1172
sS'0932+094'
p1173
S'0935+092'
p1174
sS'1030+415'
p1175
S'1033+412'
p1176
sS'0601+203'
p1177
S'0604+203'
p1178
sS'2000+472'
p1179
S'2002+474'
p1180
sS'1215+303'
p1181
S'1217+301'
p1182
sS'0046+316'
p1183
S'0048+319'
p1184
sS'0729+019'
p1185
S'0732+018'
p1186
sS'1448+762'
p1187
S'1448+760'
p1188
sS'0851+071'
p1189
S'0853+069'
p1190
sS'0445+364'
p1191
S'0448+364'
p1192
sS'2002-375'
p1193
S'2005-373'
p1194
sS'2015+083'
p1195
S'2018+085'
p1196
sS'0153+389'
p1197
S'0156+392'
p1198
sS'2143-156'
p1199
S'2146-154'
p1200
sS'2149+069'
p1201
S'2151+071'
p1202
sS'1104+728'
p1203
S'1107+725'
p1204
sS'1030+611'
p1205
S'1033+608'
p1206
sS'1827-360'
p1207
S'1830-360'
p1208
sS'0704+293'
p1209
S'0707+292'
p1210
sS'1417+172'
p1211
S'1420+170'
p1212
sS'1804-251'
p1213
S'1807-251'
p1214
sS'2252-089'
p1215
S'2255-087'
p1216
sS'1836+040'
p1217
S'1838+040'
p1218
sS'0500+019'
p1219
S'0503+020'
p1220
sS'0711+356'
p1221
S'0714+355'
p1222
sS'2227+009'
p1223
S'2229+012'
p1224
sS'0000-177'
p1225
S'0003-174'
p1226
sS'2005+642'
p1227
S'2006+644'
p1228
sS'2200+420'
p1229
S'2202+422'
p1230
sS'2022+274'
p1231
S'2024+276'
p1232
sS'0402+682'
p1233
S'0407+683'
p1234
sS'2201+315'
p1235
S'2203+317'
p1236
sS'1353-341'
p1237
S'1356-343'
p1238
sS'1621+078'
p1239
S'1623+076'
p1240
sS'1004-018'
p1241
S'1007-021'
p1242
sS'1306-095'
p1243
S'1308-098'
p1244
sS'2214+307'
p1245
S'2216+310'
p1246
sS'0229+262'
p1247
S'0232+264'
p1248
sS'0851+202'
p1249
S'0854+201'
p1250
sS'2356+385'
p1251
S'2359+388'
p1252
sS'0420-014'
p1253
S'0423-013'
p1254
sS'0229+230'
p1255
S'0232+232'
p1256
sS'1954+513'
p1257
S'1955+515'
p1258
sS'1205+544'
p1259
S'1208+542'
p1260
sS'0149+710'
p1261
S'0153+712'
p1262
sS'1443-162'
p1263
S'1445-164'
p1264
sS'1120+057'
p1265
S'1123+055'
p1266
sS'0325+005'
p1267
S'0327+007'
p1268
sS'1855+163'
p1269
S'1857+164'
p1270
sS'1325+436'
p1271
S'1327+434'
p1272
sS'0301+336'
p1273
S'0304+338'
p1274
sS'1206+549'
p1275
S'1208+546'
p1276
sS'1309+555'
p1277
S'1311+552'
p1278
sS'2121+053'
p1279
S'2123+055'
p1280
sS'0007+171'
p1281
S'0010+174'
p1282
sS'1935+360'
p1283
S'1937+361'
p1284
sS'1323+799'
p1285
S'1323+797'
p1286
sS'2032+117'
p1287
S'2034+119'
p1288
sS'0220+397'
p1289
S'0223+400'
p1290
sS'0104-408'
p1291
S'0106-405'
p1292
sS'0718+042'
p1293
S'0721+041'
p1294
sS'1010+350'
p1295
S'1013+347'
p1296
sS'0822+137'
p1297
S'0825+135'
p1298
sS'2121+547'
p1299
S'2123+550'
p1300
sS'1219+054'
p1301
S'1221+051'
p1302
sS'0234+052'
p1303
S'0237+054'
p1304
sS'2116+818'
p1305
S'2114+820'
p1306
sS'0537-441'
p1307
S'0538-440'
p1308
sS'1151+408'
p1309
S'1153+406'
p1310
sS'1406+787'
p1311
S'1406+784'
p1312
sS'1402+044'
p1313
S'1405+042'
p1314
sS'1724+273'
p1315
S'1726+272'
p1316
sS'1933+655'
p1317
S'1933+656'
p1318
sS'0242+238'
p1319
S'0245+240'
p1320
sS'2128+048'
p1321
S'2130+050'
p1322
sS'2037+216'
p1323
S'2039+218'
p1324
sS'1409+524'
p1325
S'1411+522'
p1326
sS'1348+308'
p1327
S'1350+305'
p1328
sS'0643+307'
p1329
S'0646+306'
p1330
sS'0913+391'
p1331
S'0916+389'
p1332
sS'1809+170'
p1333
S'1811+170'
p1334
sS'2238+410'
p1335
S'2241+413'
p1336
sS'1222+037'
p1337
S'1224+035'
p1338
sS'0913+003'
p1339
S'0915+001'
p1340
sS'0812+367'
p1341
S'0815+365'
p1342
sS'1421+511'
p1343
S'1423+509'
p1344
sS'2328+107'
p1345
S'2330+110'
p1346
sS'2019+050'
p1347
S'2021+052'
p1348
sS'0201-440'
p1349
S'0203-438'
p1350
sS'1746+470'
p1351
S'1747+469'
p1352
sS'0843+575'
p1353
S'0847+573'
p1354
sS'0403+064'
p1355
S'0406+066'
p1356
sS'0153-410'
p1357
S'0155-408'
p1358
sS'1255-316'
p1359
S'1257-319'
p1360
sS'1535+004'
p1361
S'1538+003'
p1362
sS'1157-215'
p1363
S'1159-218'
p1364
sS'0454+066'
p1365
S'0457+067'
p1366
sS'0749+426'
p1367
S'0753+425'
p1368
sS'0116-219'
p1369
S'0118-216'
p1370
sS'0256+424'
p1371
S'0259+425'
p1372
sS'0132-097'
p1373
S'0134-095'
p1374
sS'0538+498'
p1375
S'0542+498'
p1376
sS'1103-208'
p1377
S'1106-211'
p1378
sS'0646+692'
p1379
S'0651+691'
p1380
sS'0355+508'
p1381
S'0359+509'
p1382
sS'0611+483'
p1383
S'0615+483'
p1384
sS'0736+017'
p1385
S'0739+016'
p1386
sS'0404+768'
p1387
S'0410+769'
p1388
sS'1157+732'
p1389
S'1200+730'
p1390
sS'1451-375'
p1391
S'1454-377'
p1392
sS'0132-389'
p1393
S'0134-387'
p1394
sS'1231+811'
p1395
S'1233+809'
p1396
sS'1749+701'
p1397
S'1748+700'
p1398
sS'1435+638'
p1399
S'1436+636'
p1400
sS'1953-325'
p1401
S'1956-324'
p1402
sS'0240-217'
p1403
S'0242-215'
p1404
sS'1039+811'
p1405
S'1044+809'
p1406
sS'1952+138'
p1407
S'1955+139'
p1408
sS'0821+394'
p1409
S'0824+392'
p1410
sS'2329-162'
p1411
S'2331-159'
p1412
sS'0450+013'
p1413
S'0453+014'
p1414
sS'1602-174'
p1415
S'1605-175'
p1416
sS'1728+004'
p1417
S'1730+004'
p1418
sS'1253+185'
p1419
S'1255+182'
p1420
sS'0919-260'
p1421
S'0921-263'
p1422
sS'0514+330'
p1423
S'0518+331'
p1424
sS'0610+510'
p1425
S'0614+510'
p1426
sS'2344+068'
p1427
S'2346+070'
p1428
sS'0802+733'
p1429
S'0808+732'
p1430
sS'0740+173'
p1431
S'0743+172'
p1432
sS'2216-038'
p1433
S'2218-035'
p1434
sS'1518+045'
p1435
S'1521+043'
p1436
sS'2005+403'
p1437
S'2007+404'
p1438
sS'0334+506'
p1439
S'0337+507'
p1440
sS'0213+051'
p1441
S'0215+054'
p1442
sS'1830+139'
p1443
S'1832+139'
p1444
sS'0112-017'
p1445
S'0115-014'
p1446
sS'0056-001'
p1447
S'0059+001'
p1448
sS'0411+341'
p1449
S'0414+343'
p1450
sS'1235+196'
p1451
S'1237+194'
p1452
sS'0900+520'
p1453
S'0903+518'
p1454
sS'1300+485'
p1455
S'1302+483'
p1456
sS'0805+538'
p1457
S'0809+536'
p1458
sS'0516+087'
p1459
S'0519+088'
p1460
sS'2242+031'
p1461
S'2245+034'
p1462
sS'1308+328'
p1463
S'1310+325'
p1464
sS'2007+520'
p1465
S'2008+522'
p1466
sS'1308+326'
p1467
S'1310+323'
p1468
sS'0621+446'
p1469
S'0625+446'
p1470
sS'0159+034'
p1471
S'0201+037'
p1472
sS'1829-106'
p1473
S'1832-105'
p1474
sS'1058+726'
p1475
S'1101+724'
p1476
sS'2135-209'
p1477
S'2137-207'
p1478
sS'0333+321'
p1479
S'0336+323'
p1480
sS'1709-281'
p1481
S'1712-281'
p1482
sS'1042+178'
p1483
S'1045+175'
p1484
sS'2032-350'
p1485
S'2035-349'
p1486
sS'1923+210'
p1487
S'1925+211'
p1488
sS'0627-199'
p1489
S'0629-199'
p1490
sS'0753+519'
p1491
S'0756+518'
p1492
sS'1950+573'
p1493
S'1951+574'
p1494
sS'2356+390'
p1495
S'2358+393'
p1496
sS'1911+165'
p1497
S'1914+166'
p1498
sS'1300+580'
p1499
S'1302+578'
p1500
sS'0809+483'
p1501
S'0813+482'
p1502
sS'2033+181'
p1503
S'2035+189'
p1504
sS'1926+087'
p1505
S'1928+088'
p1506
sS'0814+425'
p1507
S'0818+423'
p1508
sS'0218-021'
p1509
S'0220-019'
p1510
sS'2030+547'
p1511
S'2031+549'
p1512
sS'1705+018'
p1513
S'1707+018'
p1514
sS'0106+612'
p1515
S'0109+615'
p1516
sS'1639-062'
p1517
S'1642-063'
p1518
sS'1939+103'
p1519
S'1941+104'
p1520
sS'0238+711'
p1521
S'0243+713'
p1522
sS'0931+834'
p1523
S'0939+832'
p1524
sS'0258+011'
p1525
S'0301+013'
p1526
sS'0248+560'
p1527
S'0251+562'
p1528
sS'1225+368'
p1529
S'1227+365'
p1530
sS'2032+107'
p1531
S'2035+109'
p1532
sS'1151-348'
p1533
S'1154-350'
p1534
sS'0518+165'
p1535
S'0521+166'
p1536
sS'1136+408'
p1537
S'1139+405'
p1538
sS'0833+585'
p1539
S'0837+584'
p1540
sS'2227-399'
p1541
S'2230-397'
p1542
sS'1648+015'
p1543
S'1651+014'
p1544
sS'1524-136'
p1545
S'1526-138'
p1546
sS'1656+053'
p1547
S'1658+052'
p1548
sS'0408+085'
p1549
S'0411+087'
p1550
sS'1843+356'
p1551
S'1845+356'
p1552
sS'0550+032'
p1553
S'0552+032'
p1554
sS'0938+277'
p1555
S'0941+274'
p1556
sS'0017+200'
p1557
S'0019+203'
p1558
sS'0426-380'
p1559
S'0428-379'
p1560
sS'1827+645'
p1561
S'1828+645'
p1562
sS'1206-238'
p1563
S'1209-241'
p1564
sS'2114+053'
p1565
S'2116+056'
p1566
sS'0423+051'
p1567
S'0426+053'
p1568
sS'0831+557'
p1569
S'0834+555'
p1570
sS'1742+228'
p1571
S'1745+228'
p1572
sS'1737+222'
p1573
S'1740+221'
p1574
sS'0239+108'
p1575
S'0242+110'
p1576
sS'1256-220'
p1577
S'1258-223'
p1578
sS'1227+255'
p1579
S'1230+253'
p1580
sS'0057+678'
p1581
S'0100+681'
p1582
sS'0221+276'
p1583
S'0224+278'
p1584
sS'0148+250'
p1585
S'0151+252'
p1586
sS'2023+503'
p1587
S'2025+504'
p1588
sS'2013+370'
p1589
S'2015+371'
p1590
sS'2203-188'
p1591
S'2206-185'
p1592
sS'1253-055'
p1593
S'1256-057'
p1594
sS'1415+463'
p1595
S'1417+461'
p1596
sS'0024+348'
p1597
S'0026+351'
p1598
sS'1143+500'
p1599
S'1145+497'
p1600
sS'1624+416'
p1601
S'1625+415'
p1602
sS'0743+744'
p1603
S'0749+743'
p1604
sS'2048+361'
p1605
S'2050+363'
p1606
sS'1625+582'
p1607
S'1626+581'
p1608
sS'1055+433'
p1609
S'1058+430'
p1610
sS'0010-401'
p1611
S'0012-399'
p1612
sS'1646+499'
p1613
S'1647+498'
p1614
sS'2325+799'
p1615
S'2327+802'
p1616
sS'0146+056'
p1617
S'0149+059'
p1618
sS'0827+243'
p1619
S'0830+241'
p1620
sS'1638+124'
p1621
S'1640+123'
p1622
sS'2222+600'
p1623
S'2224+602'
p1624
sS'1847+303'
p1625
S'1849+304'
p1626
sS'2351+456'
p1627
S'2354+458'
p1628
sS'2322-123'
p1629
S'2325-121'
p1630
sS'0943+105'
p1631
S'0946+102'
p1632
sS'0430+052'
p1633
S'0433+053'
p1634
sS'2031+216'
p1635
S'2033+217'
p1636
sS'1651+391'
p1637
S'1652+390'
p1638
sS'1137+660'
p1639
S'1139+657'
p1640
sS'0837+012'
p1641
S'0839+010'
p1642
sS'1639+230'
p1643
S'1641+229'
p1644
sS'1504+377'
p1645
S'1506+375'
p1646
sS'1909+161'
p1647
S'1911+161'
p1648
sS'2243+047'
p1649
S'2245+050'
p1650
sS'0004+240'
p1651
S'0006+243'
p1652
sS'2353+816'
p1653
S'2356+818'
p1654
sS'1252+119'
p1655
S'1254+116'
p1656
sS'0657+172'
p1657
S'0700+171'
p1658
sS'1240+381'
p1659
S'1242+378'
p1660
sS'1720+282'
p1661
S'1722+282'
p1662
sS'0554+580'
p1663
S'0559+580'
p1664
sS'0316+162'
p1665
S'0318+164'
p1666
sS'2323+009'
p1667
S'2326+012'
p1668
sS'1130+008'
p1669
S'1132+005'
p1670
sS'0716+332'
p1671
S'0719+331'
p1672
sS'0802+103'
p1673
S'0804+102'
p1674
sS'0537-158'
p1675
S'0539-158'
p1676
sS'0740+380'
p1677
S'0744+378'
p1678
sS'1144+352'
p1679
S'1147+350'
p1680
sS'0742+103'
p1681
S'0745+101'
p1682
sS'0740+768'
p1683
S'0747+766'
p1684
sS'1636+473'
p1685
S'1637+472'
p1686
sS'1242+410'
p1687
S'1244+408'
p1688
sS'2251+158'
p1689
S'2253+161'
p1690
sS'0016+731'
p1691
S'0019+734'
p1692
sS'1647-296'
p1693
S'1650-297'
p1694
sS'1652+398'
p1695
S'1653+397'
p1696
sS'0847+807'
p1697
S'0854+805'
p1698
sS'1601+112'
p1699
S'1603+110'
p1700
sS'0802+212'
p1701
S'0805+211'
p1702
sS'1839+389'
p1703
S'1840+390'
p1704
sS'1917+552'
p1705
S'1918+553'
p1706
sS'0005+114'
p1707
S'0008+117'
p1708
sS'0134+311'
p1709
S'0137+313'
p1710
sS'0922+316'
p1711
S'0925+314'
p1712
sS'0005+683'
p1713
S'0008+686'
p1714
sS'1936-155'
p1715
S'1939-154'
p1716
sS'2318+049'
p1717
S'2320+052'
p1718
sS'0619+334'
p1719
S'0622+334'
p1720
sS'1448+634'
p1721
S'1449+632'
p1722
sS'0804+140'
p1723
S'0807+138'
p1724
sS'1938-155'
p1725
S'1941-154'
p1726
sS'1101+609'
p1727
S'1104+606'
p1728
sS'1228+126'
p1729
S'1230+123'
p1730
sS'0116+319'
p1731
S'0119+321'
p1732
sS'0007+205'
p1733
S'0010+207'
p1734
sS'0201+438'
p1735
S'0204+440'
p1736
sS'2154+100'
p1737
S'2157+102'
p1738
sS'0516+276'
p1739
S'0519+277'
p1740
sS'1417+385'
p1741
S'1419+383'
p1742
sS'0615-365'
p1743
S'0617-365'
p1744
sS'1403+411'
p1745
S'1405+409'
p1746
sS'0202+149'
p1747
S'0204+152'
p1748
sS'1039+029'
p1749
S'1041+027'
p1750
sS'0804-267'
p1751
S'0806-268'
p1752
sS'0508+138'
p1753
S'0511+139'
p1754
sS'0945+664'
p1755
S'0949+662'
p1756
sS'0350+465'
p1757
S'0354+467'
p1758
sS'0411-346'
p1759
S'0413-345'
p1760
sS'1828+829'
p1761
S'1822+829'
p1762
sS'1146+189'
p1763
S'1148+186'
p1764
sS'2022+031'
p1765
S'2025+032'
p1766
sS'0110+495'
p1767
S'0113+498'
p1768
sS'1255+327'
p1769
S'1257+324'
p1770
sS'1927+256'
p1771
S'1929+257'
p1772
sS'0156+128'
p1773
S'0158+131'
p1774
sS'0646-306'
p1775
S'0648-307'
p1776
sS'2259+568'
p1777
S'2301+571'
p1778
sS'0906+432'
p1779
S'0909+428'
p1780
sS'1606+106'
p1781
S'1608+104'
p1782
sS'2243-123'
p1783
S'2246-121'
p1784
sS'1830+074'
p1785
S'1832+075'
p1786
sS'0839+187'
p1787
S'0842+185'
p1788
sS'2106-413'
p1789
S'2109-411'
p1790
sS'0342+538'
p1791
S'0346+540'
p1792
sS'2354-117'
p1793
S'2357-114'
p1794
sS'1155+251'
p1795
S'1158+248'
p1796
sS'1105+437'
p1797
S'1108+435'
p1798
sS'0542+112'
p1799
S'0544+113'
p1800
sS'0258+533'
p1801
S'0302+535'
p1802
sS'1215-457'
p1803
S'1218-460'
p1804
sS'0642+449'
p1805
S'0646+448'
p1806
sS'1759+138'
p1807
S'1801+138'
p1808
sS'1336-260'
p1809
S'1339-263'
p1810
sS'1243-072'
p1811
S'1246-075'
p1812
sS'1910+375'
p1813
S'1912+376'
p1814
sS'1143-332'
p1815
S'1146-334'
p1816
sS'2013+163'
p1817
S'2016+165'
p1818
sS'1812+412'
p1819
S'1814+412'
p1820
sS'0344+235'
p1821
S'0347+236'
p1822
sS'1623+569'
p1823
S'1624+568'
p1824
sS'1817-098'
p1825
S'1820-097'
p1826
sS'2008-068'
p1827
S'2011-067'
p1828
sS'1100+223'
p1829
S'1103+220'
p1830
sS'0842+048'
p1831
S'0845+046'
p1832
sS'0253+133'
p1833
S'0256+135'
p1834
sS'0518+211'
p1835
S'0521+212'
p1836
sS'0718+793'
p1837
S'0726+791'
p1838
sS'1128-047'
p1839
S'1131-050'
p1840
sS'1555-140'
p1841
S'1558-141'
p1842
sS'2205+166'
p1843
S'2207+168'
p1844
sS'0349+662'
p1845
S'0354+663'
p1846
sS'1143-245'
p1847
S'1146-247'
p1848
sS'1546+027'
p1849
S'1549+026'
p1850
sS'2114+048'
p1851
S'2117+050'
p1852
sS'0010+405'
p1853
S'0013+408'
p1854
sS'1926+050'
p1855
S'1929+051'
p1856
sS'0946+006'
p1857
S'0948+003'
p1858
sS'0039+230'
p1859
S'0042+233'
p1860
sS'1117-248'
p1861
S'1120-251'
p1862
sS'0532+391'
p1863
S'0535+391'
p1864
sS'1828+487'
p1865
S'1829+487'
p1866
sS'0659+268'
p1867
S'0702+267'
p1868
sS'2017+745'
p1869
S'2017+746'
p1870
sS'1742-078'
p1871
S'1745-078'
p1872
sS'1502+106'
p1873
S'1504+104'
p1874
sS'1445-162'
p1875
S'1448-163'
p1876
sS'0633+734'
p1877
S'0639+734'
p1878
sS'1041+536'
p1879
S'1044+533'
p1880
sS'1018+348'
p1881
S'1021+346'
p1882
sS'0444+634'
p1883
S'0449+635'
p1884
sS'2159+505'
p1885
S'2201+508'
p1886
sS'1807+279'
p1887
S'1809+279'
p1888
sS'1724+322'
p1889
S'1726+322'
p1890
sS'0912+029'
p1891
S'0914+027'
p1892
sS'1442+637'
p1893
S'1443+635'
p1894
sS'0854+213'
p1895
S'0856+211'
p1896
sS'2103+213'
p1897
S'2106+215'
p1898
sS'2047+098'
p1899
S'2049+100'
p1900
sS'1828+399'
p1901
S'1829+399'
p1902
sS'0732+207'
p1903
S'0735+206'
p1904
sS'1116+128'
p1905
S'1118+125'
p1906
sS'1419+419'
p1907
S'1421+417'
p1908
sS'1645+635'
p1909
S'1645+635'
p1910
sS'0024+224'
p1911
S'0027+226'
p1912
sS'0951+175'
p1913
S'0953+173'
p1914
sS'1951+355'
p1915
S'1953+356'
p1916
sS'1645+410'
p1917
S'1646+409'
p1918
sS'1622-297'
p1919
S'1626-298'
p1920
sS'1113+087'
p1921
S'1116+084'
p1922
sS'0334+014'
p1923
S'0337+016'
p1924
sS'1354-174'
p1925
S'1357-177'
p1926
sS'1424+240'
p1927
S'1427+238'
p1928
sS'0206-048'
p1929
S'0209-046'
p1930
sS'1806+456'
p1931
S'1808+457'
p1932
sS'1941+413'
p1933
S'1942+414'
p1934
sS'2327+335'
p1935
S'2330+338'
p1936
sS'0739+398'
p1937
S'0743+396'
p1938
sS'0732+332'
p1939
S'0735+331'
p1940
sS'0357+057'
p1941
S'0400+058'
p1942
sS'0702+612'
p1943
S'0707+611'
p1944
sS'1150+497'
p1945
S'1153+495'
p1946
sS'2247+113'
p1947
S'2249+116'
p1948
sS'0107+562'
p1949
S'0110+565'
p1950
sS'1550-269'
p1951
S'1554-270'
p1952
sS'1135+480'
p1953
S'1138+477'
p1954
sS'1716+070'
p1955
S'1719+069'
p1956
sS'0744-158'
p1957
S'0746-159'
p1958
sS'1257+519'
p1959
S'1259+516'
p1960
sS'0446+113'
p1961
S'0448+114'
p1962
sS'0446+112'
p1963
S'0449+113'
p1964
sS'2140-048'
p1965
S'2142-046'
p1966
sS'1150+812'
p1967
S'1153+809'
p1968
sS'1040+123'
p1969
S'1042+120'
p1970
sS'2107-105'
p1971
S'2110-103'
p1972
sS'0507+179'
p1973
S'0510+180'
p1974
sS'0032+276'
p1975
S'0034+279'
p1976
sS'0954+556'
p1977
S'0957+553'
p1978
sS'2255-282'
p1979
S'2258-279'
p1980
sS'1009+234'
p1981
S'1012+232'
p1982
sS'1101+384'
p1983
S'1104+382'
p1984
sS'0354+599'
p1985
S'0359+600'
p1986
sS'1730-130'
p1987
S'1733-130'
p1988
sS'1046-409'
p1989
S'1048-412'
p1990
sS'1128+308'
p1991
S'1130+305'
p1992
sS'0514-161'
p1993
S'0516-160'
p1994
sS'0026+346'
p1995
S'0029+349'
p1996
sS'1053+704'
p1997
S'1056+701'
p1998
sS'2223+210'
p1999
S'2225+213'
p2000
sS'1836+094'
p2001
S'1838+094'
p2002
sS'2001+449'
p2003
S'2002+451'
p2004
sS'0806+573'
p2005
S'0811+572'
p2006
sS'1213-172'
p2007
S'1215-175'
p2008
sS'0251+393'
p2009
S'0254+395'
p2010
sS'0810+327'
p2011
S'0814+326'
p2012
sS'1140-114'
p2013
S'1142-116'
p2014
sS'0210+181'
p2015
S'0213+183'
p2016
sS'2321-375'
p2017
S'2324-372'
p2018
sS'2323+435'
p2019
S'2325+437'
p2020
sS'2325+093'
p2021
S'2327+096'
p2022
sS'1711-251'
p2023
S'1714-252'
p2024
sS'1144+542'
p2025
S'1146+539'
p2026
sS'1800+440'
p2027
S'1801+440'
p2028
sS'2010+463'
p2029
S'2012+464'
p2030
sS'0930+493'
p2031
S'0934+491'
p2032
sS'1456+044'
p2033
S'1458+042'
p2034
sS'1908-201'
p2035
S'1911-201'
p2036
sS'2319+317'
p2037
S'2321+320'
p2038
sS'1232+366'
p2039
S'1235+363'
p2040
sS'0736-063'
p2041
S'0738-064'
p2042
sS'0346+800'
p2043
S'0354+801'
p2044
sS'0250+178'
p2045
S'0253+180'
p2046
sS'2356+196'
p2047
S'2358+199'
p2048
sS'1724+066'
p2049
S'1726+066'
p2050
sS'0035+413'
p2051
S'0038+416'
p2052
sS'1929+226'
p2053
S'1931+227'
p2054
sS'1446+042'
p2055
S'1448+040'
p2056
sS'1427+109'
p2057
S'1430+107'
p2058
sS'1014+615'
p2059
S'1017+612'
p2060
sS'1555+001'
p2061
S'1557-000'
p2062
sS'0018+729'
p2063
S'0021+732'
p2064
sS'0909+222'
p2065
S'0912+220'
p2066
sS'0447+408'
p2067
S'0450+409'
p2068
sS'1830-210'
p2069
S'1833-210'
p2070
sS'1502+291'
p2071
S'1504+289'
p2072
sS'2319+444'
p2073
S'2322+447'
p2074
sS'0814+240'
p2075
S'0817+238'
p2076
sS'1654+866'
p2077
S'1639+865'
p2078
sS'0032-203'
p2079
S'0035-200'
p2080
sS'2314+038'
p2081
S'2316+040'
p2082
sS'1623+578'
p2083
S'1624+576'
p2084
sS'1109+350'
p2085
S'1112+347'
p2086
sS'0318+438'
p2087
S'0321+439'
p2088
sS'2135+508'
p2089
S'2137+510'
p2090
sS'0055+060'
p2091
S'0058+063'
p2092
sS'2106+143'
p2093
S'2108+145'
p2094
sS'1000+125'
p2095
S'1002+122'
p2096
sS'0459+060'
p2097
S'0502+061'
p2098
sS'2157+102'
p2099
S'2200+105'
p2100
sS'1755+578'
p2101
S'1756+578'
p2102
sS'1153+317'
p2103
S'1156+314'
p2104
sS'2240+174'
p2105
S'2242+176'
p2106
sS'1008+066'
p2107
S'1011+064'
p2108
sS'1339+274'
p2109
S'1342+271'
p2110
sS'2258+166'
p2111
S'2300+169'
p2112
sS'1849+670'
p2113
S'1849+670'
p2114
sS'0106+013'
p2115
S'0108+015'
p2116
sS'1739+438'
p2117
S'1740+438'
p2118
sS'2046+429'
p2119
S'2048+431'
p2120
sS'0019+058'
p2121
S'0022+061'
p2122
sS'1357+404'
p2123
S'1359+401'
p2124
sS'0421+019'
p2125
S'0424+020'
p2126
sS'0442+071'
p2127
S'0445+072'
p2128
sS'0122+705'
p2129
S'0126+707'
p2130
sS'1641+074'
p2131
S'1644+073'
p2132
sS'0808+019'
p2133
S'0811+017'
p2134
sS'0818-128'
p2135
S'0820-129'
p2136
sS'0106+678'
p2137
S'0110+680'
p2138
sS'1024+483'
p2139
S'1027+480'
p2140
sS'0442+389'
p2141
S'0446+390'
p2142
sS'1655+077'
p2143
S'1658+076'
p2144
sS'2122+044'
p2145
S'2125+046'
p2146
sS'1543+005'
p2147
S'1546+004'
p2148
sS'0650+371'
p2149
S'0653+370'
p2150
sS'1538+149'
p2151
S'1540+147'
p2152
sS'0639-032'
p2153
S'0641-033'
p2154
sS'1451+270'
p2155
S'1453+268'
p2156
sS'0704-231'
p2157
S'0706-231'
p2158
sS'0409+000'
p2159
S'0412+001'
p2160
sS'0727+409'
p2161
S'0730+407'
p2162
sS'0837+035'
p2163
S'0839+033'
p2164
sS'2312-319'
p2165
S'2314-316'
p2166
sS'0937+262'
p2167
S'0940+260'
p2168
sS'2336+598'
p2169
S'2339+601'
p2170
sS'0332+078'
p2171
S'0334+080'
p2172
sS'2211+069'
p2173
S'2214+071'
p2174
sS'0942+468'
p2175
S'0945+466'
p2176
sS'0600+219'
p2177
S'0603+219'
p2178
sS'2014+358'
p2179
S'2016+360'
p2180
sS'2054+611'
p2181
S'2055+613'
p2182
sS'1842+681'
p2183
S'1842+681'
p2184
sS'0119+296'
p2185
S'0122+299'
p2186
sS'1858+273'
p2187
S'1900+273'
p2188
sS'0149+218'
p2189
S'0152+221'
p2190
sS'0509+406'
p2191
S'0512+406'
p2192
sS'0601+245'
p2193
S'0604+244'
p2194
sS'0319+121'
p2195
S'0321+123'
p2196
sS'1714-336'
p2197
S'1717-337'
p2198
sS'0529+075'
p2199
S'0532+075'
p2200
sS'0917+624'
p2201
S'0921+622'
p2202
sS'2355-106'
p2203
S'2358-103'
p2204
sS'1425-274'
p2205
S'1428-276'
p2206
sS'2147+077'
p2207
S'2149+079'
p2208
sS'1831-030'
p2209
S'1834-030'
p2210
sS'1722+610'
p2211
S'1722+610'
p2212
sS'1547+507'
p2213
S'1549+506'
p2214
sS'1133+344'
p2215
S'1136+341'
p2216
sS'1534+501'
p2217
S'1535+499'
p2218
sS'0202-172'
p2219
S'0204-170'
p2220
sS'2155+312'
p2221
S'2157+314'
p2222
sS'0151+474'
p2223
S'0154+477'
p2224
sS'1128+315'
p2225
S'1131+312'
p2226
sS'2215+020'
p2227
S'2217+023'
p2228
sS'1328+307'
p2229
S'1331+305'
p2230
sS'0218+357'
p2231
S'0221+359'
p2232
sS'1308+471'
p2233
S'1310+468'
p2234
sS'0925+504'
p2235
S'0929+502'
p2236
sS'1705+456'
p2237
S'1707+456'
p2238
sS'0259+681'
p2239
S'0304+683'
p2240
sS'0859+470'
p2241
S'0903+468'
p2242
sS'1600+335'
p2243
S'1602+334'
p2244
sS'1005+077'
p2245
S'1008+075'
p2246
sS'1915+657'
p2247
S'1915+658'
p2248
sS'0054+161'
p2249
S'0056+164'
p2250
sS'1604+183'
p2251
S'1606+182'
p2252
sS'2008+332'
p2253
S'2010+333'
p2254
sS'2210+065'
p2255
S'2212+067'
p2256
sS'0602-424'
p2257
S'0604-424'
p2258
sS'1333+459'
p2259
S'1335+457'
p2260
sS'1015-314'
p2261
S'1018-317'
p2262
sS'2049+175'
p2263
S'2051+177'
p2264
sS'0241+622'
p2265
S'0244+624'
p2266
sS'1327+504'
p2267
S'1329+501'
p2268
sS'0051+706'
p2269
S'0054+708'
p2270
sS'0505+354'
p2271
S'0509+354'
p2272
sS'1822-076'
p2273
S'1825-076'
p2274
sS'0650-063'
p2275
S'0653-064'
p2276
sS'1543+480'
p2277
S'1545+478'
p2278
sS'0309+411'
p2279
S'0313+413'
p2280
sS'0048-071'
p2281
S'0051-068'
p2282
sS'0454-463'
p2283
S'0455-462'
p2284
sS'1823+689'
p2285
S'1823+689'
p2286
sS'1551+130'
p2287
S'1553+129'
p2288
sS'0042-357'
p2289
S'0044-355'
p2290
sS'1920-211'
p2291
S'1923-210'
p2292
sS'0748+333'
p2293
S'0751+332'
p2294
sS'0810+646'
p2295
S'0814+645'
p2296
sS'2319+272'
p2297
S'2321+275'
p2298
sS'2239+096'
p2299
S'2241+098'
p2300
sS'0422+004'
p2301
S'0424+006'
p2302
sS'0406-180'
p2303
S'0409-179'
p2304
sS'1712+493'
p2305
S'1713+492'
p2306
sS'1217+348'
p2307
S'1220+345'
p2308
sS'1819+159'
p2309
S'1822+160'
p2310
sS'1346-391'
p2311
S'1349-393'
p2312
sS'1817-254'
p2313
S'1820-254'
p2314
sS'1206+439'
p2315
S'1209+436'
p2316
sS'1111+408'
p2317
S'1114+406'
p2318
sS'0436+426'
p2319
S'0440+427'
p2320
sS'0636+680'
p2321
S'0642+679'
p2322
sS'0240-002'
p2323
S'0242-000'
p2324
sS'1600-445'
p2325
S'1604-446'
p2326
sS'1357+769'
p2327
S'1357+767'
p2328
sS'0733+705'
p2329
S'0739+703'
p2330
sS'2209+236'
p2331
S'2212+239'
p2332
sS'1345+125'
p2333
S'1347+122'
p2334
sS'1203+645'
p2335
S'1206+642'
p2336
sS'1335-061'
p2337
S'1338-064'
p2338
sS'1416+067'
p2339
S'1419+064'
p2340
sS'0412+447'
p2341
S'0415+448'
p2342
sS'1656+571'
p2343
S'1657+570'
p2344
sS'0351+390'
p2345
S'0355+391'
p2346
sS'0048-097'
p2347
S'0050-094'
p2348
sS'1807+698'
p2349
S'1806+698'
p2350
sS'0745-330'
p2351
S'0747-331'
p2352
sS'1609+190'
p2353
S'1611+189'
p2354
sS'0045+243'
p2355
S'0047+245'
p2356
sS'0402-362'
p2357
S'0403-360'
p2358
sS'2248+712'
p2359
S'2250+714'
p2360
sS'0252+657'
p2361
S'0257+659'
p2362
sS'1306+660'
p2363
S'1308+657'
p2364
sS'0034+108'
p2365
S'0037+111'
p2366
sS'0803+452'
p2367
S'0806+450'
p2368
sS'1944+126'
p2369
S'1947+128'
p2370
sS'1922+478'
p2371
S'1923+479'
p2372
sS'1944+838'
p2373
S'1937+839'
p2374
sS'2048+312'
p2375
S'2050+314'
p2376
sS'1254+571'
p2377
S'1256+568'
p2378
sS'0740+235'
p2379
S'0743+234'
p2380
sS'1826+796'
p2381
S'1823+796'
p2382
sS'2246+370'
p2383
S'2248+373'
p2384
sS'2220+119'
p2385
S'2222+122'
p2386
sS'1028+605'
p2387
S'1031+603'
p2388
sS'2226+440'
p2389
S'2228+443'
p2390
sS'0730+504'
p2391
S'0733+503'
p2392
sS'0850+625'
p2393
S'0854+623'
p2394
sS'0119+115'
p2395
S'0121+118'
p2396
sS'1638+398'
p2397
S'1640+397'
p2398
sS'0221+067'
p2399
S'0224+069'
p2400
sS'2018+231'
p2401
S'2021+233'
p2402
sS'2001+304'
p2403
S'2003+305'
p2404
sS'1608+243'
p2405
S'1610+242'
p2406
sS'1634+628'
p2407
S'1634+627'
p2408
sS'1933-400'
p2409
S'1937-399'
p2410
sS'1402-012'
p2411
S'1404-015'
p2412
sS'0205+643'
p2413
S'0209+646'
p2414
sS'0019+451'
p2415
S'0022+454'
p2416
sS'2155-304'
p2417
S'2158-302'
p2418
sS'2003+662'
p2419
S'2003+664'
p2420
sS'0249+171'
p2421
S'0252+173'
p2422
sS'1801+010'
p2423
S'1804+010'
p2424
sS'0927+469'
p2425
S'0930+467'
p2426
sS'1514+004'
p2427
S'1516+002'
p2428
sS'2206+650'
p2429
S'2208+653'
p2430
sS'2318-166'
p2431
S'2321-163'
p2432
sS'1048+207'
p2433
S'1051+204'
p2434
sS'1451-400'
p2435
S'1454-402'
p2436
sS'1030-340'
p2437
S'1033-343'
p2438
sS'2301+060'
p2439
S'2304+063'
p2440
sS'0727-365'
p2441
S'0729-366'
p2442
sS'0958+294'
p2443
S'1001+291'
p2444
sS'1645+271'
p2445
S'1647+270'
p2446
sS'0650+453'
p2447
S'0654+452'
p2448
sS'2004-447'
p2449
S'2007-445'
p2450
sS'0056-172'
p2451
S'0059-170'
p2452
sS'0823-223'
p2453
S'0826-225'
p2454
sS'0716+477'
p2455
S'0720+476'
p2456
sS'0454+844'
p2457
S'0508+845'
p2458
sS'1633+382'
p2459
S'1635+381'
p2460
sS'0859+681'
p2461
S'0903+679'
p2462
sS'0033+142'
p2463
S'0036+145'
p2464
sS'2329-384'
p2465
S'2331-381'
p2466
sS'1953-077'
p2467
S'1956-076'
p2468
sS'2202+363'
p2469
S'2204+365'
p2470
sS'2259+371'
p2471
S'2301+374'
p2472
sS'2348+643'
p2473
S'2350+646'
p2474
sS'1318+113'
p2475
S'1321+111'
p2476
sS'0839+687'
p2477
S'0843+685'
p2478
sS'0629+104'
p2479
S'0632+103'
p2480
sS'0149+335'
p2481
S'0152+338'
p2482
sS'0003-066'
p2483
S'0006-063'
p2484
sS'1340+606'
p2485
S'1342+603'
p2486
sS'0611+131'
p2487
S'0613+131'
p2488
sS'0955+509'
p2489
S'0958+506'
p2490
sS'0759-283'
p2491
S'0801-285'
p2492
sS'1848+283'
p2493
S'1850+284'
p2494
sS'1511-210'
p2495
S'1513-212'
p2496
sS'2113+293'
p2497
S'2115+295'
p2498
sS'0646+600'
p2499
S'0650+600'
p2500
sS'0700+470'
p2501
S'0704+470'
p2502
sS'1823+568'
p2503
S'1824+568'
p2504
sS'2210+277'
p2505
S'2212+279'
p2506
sS'0046+511'
p2507
S'0049+514'
p2508
sS'0229-398'
p2509
S'0231-395'
p2510
sS'0552+398'
p2511
S'0555+398'
p2512
sS'0027+703'
p2513
S'0030+706'
p2514
sS'1749+096'
p2515
S'1751+096'
p2516
sS'1146+286'
p2517
S'1149+284'
p2518
sS'0953+254'
p2519
S'0956+252'
p2520
sS'1241+749'
p2521
S'1243+747'
p2522
sS'1318+225'
p2523
S'1321+222'
p2524
sS'0738+313'
p2525
S'0741+312'
p2526
sS'1228+045'
p2527
S'1231+043'
p2528
sS'0641+393'
p2529
S'0644+392'
p2530
sS'1315+346'
p2531
S'1317+344'
p2532
sS'1356+022'
p2533
S'1359+019'
p2534
sS'1829-207'
p2535
S'1832-206'
p2536
sS'0524+034'
p2537
S'0527+035'
p2538
sS'0911+354'
p2539
S'0914+352'
p2540
sS'2123+244'
p2541
S'2125+247'
p2542
sS'1937+381'
p2543
S'1939+382'
p2544
sS'0822+272'
p2545
S'0825+270'
p2546
sS'0925+745'
p2547
S'0930+743'
p2548
sS'1322+479'
p2549
S'1324+477'
p2550
sS'1323+321'
p2551
S'1326+319'
p2552
sS'2352+495'
p2553
S'2355+498'
p2554
sS'2118+188'
p2555
S'2121+190'
p2556
sS'2107+353'
p2557
S'2109+355'
p2558
sS'1312+533'
p2559
S'1314+531'
p2560
sS'0645+858'
p2561
S'0702+858'
p2562
sS'1123+203'
p2563
S'1125+200'
p2564
sS'1455+080'
p2565
S'1457+078'
p2566
sS'0600+442'
p2567
S'0604+442'
p2568
sS'0035+503'
p2569
S'0038+505'
p2570
sS'2022+171'
p2571
S'2024+173'
p2572
sS'0740+828'
p2573
S'0750+826'
p2574
sS'0549+192'
p2575
S'0552+192'
p2576
sS'1604+274'
p2577
S'1606+272'
p2578
sS'0433+295'
p2579
S'0437+296'
p2580
sS'2132+406'
p2581
S'2134+408'
p2582
sS'2347+108'
p2583
S'2350+111'
p2584
sS'1124+455'
p2585
S'1126+452'
p2586
sS'1435-218'
p2587
S'1438-220'
p2588
sS'1035+430'
p2589
S'1038+427'
p2590
sS'0117-155'
p2591
S'0120-153'
p2592
sS'1417+273'
p2593
S'1419+271'
p2594
sS'1705+188'
p2595
S'1707+187'
p2596
sS'0145+386'
p2597
S'0148+389'
p2598
sS'1056+212'
p2599
S'1059+209'
p2600
sS'0158+031'
p2601
S'0200+033'
p2602
sS'0017+154'
p2603
S'0020+156'
p2604
sS'1303+557'
p2605
S'1306+554'
p2606
sS'0424+670'
p2607
S'0429+671'
p2608
sS'0506+101'
p2609
S'0509+101'
p2610
sS'1619+491'
p2611
S'1620+490'
p2612
sS'0833+416'
p2613
S'0836+414'
p2614
sS'0137+635'
p2615
S'0140+637'
p2616
sS'0925-203'
p2617
S'0927-205'
p2618
sS'1337+637'
p2619
S'1339+634'
p2620
sS'0959-443'
p2621
S'1001-446'
p2622
sS'0738-246'
p2623
S'0740-247'
p2624
sS'1100+305'
p2625
S'1103+302'
p2626
sS'1437-153'
p2627
S'1439-155'
p2628
sS'0459+135'
p2629
S'0502+136'
p2630
sS'1319+220'
p2631
S'1322+218'
p2632
sS'0120+259'
p2633
S'0123+262'
p2634
sS'0445-221'
p2635
S'0447-220'
p2636
sS'1820+397'
p2637
S'1821+397'
p2638
sS'2002+182'
p2639
S'2005+184'
p2640
sS'2258+033'
p2641
S'2300+036'
p2642
sS'0554+343'
p2643
S'0558+343'
p2644
sS'1136+771'
p2645
S'1139+769'
p2646
sS'2234+282'
p2647
S'2236+284'
p2648
sS'1550+582'
p2649
S'1551+581'
p2650
sS'2023+760'
p2651
S'2022+761'
p2652
sS'0234+285'
p2653
S'0237+288'
p2654
sS'0256+075'
p2655
S'0259+077'
p2656
sS'1011+250'
p2657
S'1013+248'
p2658
sS'0205+722'
p2659
S'0209+724'
p2660
sS'0138+136'
p2661
S'0141+138'
p2662
sS'1843+400'
p2663
S'1845+401'
p2664
sS'1023+131'
p2665
S'1025+128'
p2666
sS'0335+225'
p2667
S'0338+227'
p2668
sS'0725+147'
p2669
S'0728+146'
p2670
sS'1742+378'
p2671
S'1743+377'
p2672
sS'1946+708'
p2673
S'1945+709'
p2674
sS'1745+624'
p2675
S'1746+624'
p2676
sS'0122+470'
p2677
S'0125+473'
p2678
sS'1510-089'
p2679
S'1512-090'
p2680
sS'1734+363'
p2681
S'1735+362'
p2682
sS'0933+503'
p2683
S'0937+501'
p2684
sS'0238-084'
p2685
S'0241-082'
p2686
sS'0606-223'
p2687
S'0608-223'
p2688
sS'0602+109'
p2689
S'0604+109'
p2690
sS'0745-165'
p2691
S'0748-166'
p2692
sS'1811+298'
p2693
S'1813+298'
p2694
sS'0425+048'
p2695
S'0427+049'
p2696
sS'1110-217'
p2697
S'1112-219'
p2698
sS'1429+400'
p2699
S'1431+398'
p2700
sS'1055+567'
p2701
S'1058+564'
p2702
sS'1548+114'
p2703
S'1550+113'
p2704
sS'0024+092'
p2705
S'0027+094'
p2706
sS'0148+274'
p2707
S'0151+277'
p2708
sS'1434+235'
p2709
S'1436+233'
p2710
sS'0424+328'
p2711
S'0428+329'
p2712
sS'1343+500'
p2713
S'1345+497'
p2714
sS'2010+723'
p2715
S'2009+724'
p2716
sS'1222+438'
p2717
S'1224+435'
p2718
sS'0013-005'
p2719
S'0016-002'
p2720
sS'1607+268'
p2721
S'1609+266'
p2722
sS'1901+155'
p2723
S'1904+156'
p2724
sS'0418+532'
p2725
S'0422+534'
p2726
sS'1328+254'
p2727
S'1330+251'
p2728
sS'0923+392'
p2729
S'0927+390'
p2730
sS'1333+589'
p2731
S'1335+587'
p2732
sS'0405-385'
p2733
S'0406-384'
p2734
sS'2138+389'
p2735
S'2140+391'
p2736
sS'0215+015'
p2737
S'0217+017'
p2738
sS'1436+214'
p2739
S'1439+212'
p2740
sS'1754+155'
p2741
S'1756+155'
p2742
sS'0723+219'
p2743
S'0726+218'
p2744
sS'1144+402'
p2745
S'1146+399'
p2746
sS'0723-189'
p2747
S'0725-190'
p2748
sS'1311+552'
p2749
S'1313+549'
p2750
sS'0818+472'
p2751
S'0821+470'
p2752
sS'0119+247'
p2753
S'0122+250'
p2754
sS'1604-333'
p2755
S'1607-335'
p2756
sS'0741-063'
p2757
S'0744-064'
p2758
sS'0135-247'
p2759
S'0137-245'
p2760
sS'1226+492'
p2761
S'1228+489'
p2762
sS'0307+380'
p2763
S'0310+382'
p2764
sS'0216+011'
p2765
S'0219+013'
p2766
sS'2346+385'
p2767
S'2349+387'
p2768
sS'0714+457'
p2769
S'0717+456'
p2770
sS'0810+461'
p2771
S'0814+459'
p2772
sS'1218+384'
p2773
S'1220+381'
p2774
sS'0955+476'
p2775
S'0958+474'
p2776
sS'0738+548'
p2777
S'0742+547'
p2778
sS'0454+039'
p2779
S'0456+040'
p2780
sS'2007+249'
p2781
S'2009+250'
p2782
sS'0515+208'
p2783
S'0518+209'
p2784
sS'1534+387'
p2785
S'1536+385'
p2786
sS'1023+747'
p2787
S'1027+744'
p2788
sS'0945+408'
p2789
S'0948+406'
p2790
sS'2339-353'
p2791
S'2341-351'
p2792
sS'2131+145'
p2793
S'2133+147'
p2794
sS'2207+374'
p2795
S'2209+377'
p2796
sS'0805+410'
p2797
S'0808+408'
p2798
sS'0424+414'
p2799
S'0427+415'
p2800
sS'0836+182'
p2801
S'0839+180'
p2802
sS'1505+497'
p2803
S'1506+495'
p2804
sS'2136+824'
p2805
S'2133+826'
p2806
sS'2319+184'
p2807
S'2322+187'
p2808
sS'0936+419'
p2809
S'0939+416'
p2810
sS'1036+054'
p2811
S'1038+052'
p2812
sS'0918+140'
p2813
S'0921+138'
p2814
sS'1617+229'
p2815
S'1619+227'
p2816
sS'1642+690'
p2817
S'1642+689'
p2818
sS'0015+529'
p2819
S'0017+532'
p2820
sS'0459+252'
p2821
S'0502+252'
p2822
sS'1258+145'
p2823
S'1300+142'
p2824
sS'0801+044'
p2825
S'0803+043'
p2826
sS'0920+390'
p2827
S'0923+388'
p2828
sS'0205-010'
p2829
S'0208-004'
p2830
sS'1753+338'
p2831
S'1755+338'
p2832
sS'1857+129'
p2833
S'1859+129'
p2834
sS'0922+005'
p2835
S'0925+003'
p2836
sS'2118+443'
p2837
S'2120+445'
p2838
sS'1859-235'
p2839
S'1902-234'
p2840
sS'1206+415'
p2841
S'1209+413'
p2842
sS'0648-165'
p2843
S'0650-166'
p2844
sS'0802-276'
p2845
S'0804-278'
p2846
sS'1540+539'
p2847
S'1541+538'
p2848
sS'1213+350'
p2849
S'1215+348'
p2850
sS'0217+324'
p2851
S'0220+326'
p2852
sS'1406+564'
p2853
S'1408+562'
p2854
sS'0429+415'
p2855
S'0432+416'
p2856
sS'1520+437'
p2857
S'1521+436'
p2858
sS'1422+473'
p2859
S'1424+470'
p2860
sS'0824+355'
p2861
S'0827+354'
p2862
sS'0237+040'
p2863
S'0239+042'
p2864
sS'2248+555'
p2865
S'2250+558'
p2866
sS'1830+285'
p2867
S'1832+285'
p2868
sS'2340+233'
p2869
S'2343+236'
p2870
sS'1344-078'
p2871
S'1347-080'
p2872
sS'1511-100'
p2873
S'1513-102'
p2874
sS'0320+053'
p2875
S'0323+055'
p2876
sS'2013+527'
p2877
S'2015+528'
p2878
sS'2022+542'
p2879
S'2023+544'
p2880
sS'1156+101'
p2881
S'1159+099'
p2882
sS'2209+328'
p2883
S'2212+331'
p2884
sS'1304+791'
p2885
S'1305+789'
p2886
sS'0637-337'
p2887
S'0639-337'
p2888
sS'2008-159'
p2889
S'2011-157'
p2890
sS'0627+176'
p2891
S'0630+176'
p2892
sS'0258+315'
p2893
S'0301+317'
p2894
sS'1206-399'
p2895
S'1209-402'
p2896
sS'1522+113'
p2897
S'1525+111'
p2898
sS'0928+144'
p2899
S'0931+142'
p2900
sS'0413-210'
p2901
S'0416-209'
p2902
sS'1621-115'
p2903
S'1623-116'
p2904
sS'1239+376'
p2905
S'1242+373'
p2906
sS'1118+073'
p2907
S'1120+070'
p2908
sS'1330+476'
p2909
S'1332+473'
p2910
sS'1727+502'
p2911
S'1728+502'
p2912
sS'1758+388'
p2913
S'1800+388'
p2914
sS'0725+219'
p2915
S'0728+218'
p2916
sS'1406-267'
p2917
S'1409-269'
p2918
sS'0519+011'
p2919
S'0522+012'
p2920
sS'1508-055'
p2921
S'1510-057'
p2922
sS'0651+410'
p2923
S'0655+410'
p2924
sS'0731+479'
p2925
S'0735+478'
p2926
sS'1532+016'
p2927
S'1534+015'
p2928
sS'2120+099'
p2929
S'2123+101'
p2930
sS'0812-029'
p2931
S'0815-031'
p2932
sS'0859-140'
p2933
S'0902-142'
p2934
sS'2308+341'
p2935
S'2311+344'
p2936
sS'1545+497'
p2937
S'1547+496'
p2938
sS'1716+686'
p2939
S'1716+686'
p2940
sS'0414-189'
p2941
S'0416-188'
p2942
sS'1421+482'
p2943
S'1423+480'
p2944
sS'0038-020'
p2945
S'0040-017'
p2946
sS'1751+288'
p2947
S'1753+288'
p2948
sS'2136+141'
p2949
S'2139+143'
p2950
sS'0310+013'
p2951
S'0312+015'
p2952
sS'0532+826'
p2953
S'0543+826'
p2954
sS'1622-253'
p2955
S'1625-254'
p2956
sS'0821+621'
p2957
S'0825+619'
p2958
sS'0202+145'
p2959
S'0205+147'
p2960
sS'1143+446'
p2961
S'1145+443'
p2962
sS'1811+062'
p2963
S'1813+062'
p2964
sS'2021+003'
p2965
S'2024+004'
p2966
sS'2216+178'
p2967
S'2219+181'
p2968
sS'1801+036'
p2969
S'1803+036'
p2970
sS'1340+289'
p2971
S'1343+287'
p2972
sS'1750+175'
p2973
S'1752+175'
p2974
sS'0400-319'
p2975
S'0402-317'
p2976
sS'0353+289'
p2977
S'0356+290'
p2978
sS'2250+323'
p2979
S'2253+326'
p2980
sS'0728-235'
p2981
S'0731-236'
p2982
sS'2235+275'
p2983
S'2238+278'
p2984
sS'2331-240'
p2985
S'2333-237'
p2986
sS'1439+327'
p2987
S'1442+325'
p2988
sS'2254-367'
p2989
S'2257-364'
p2990
sS'0604+882'
p2991
S'0642+881'
p2992
sS'1226+023'
p2993
S'1229+020'
p2994
sS'2304+322'
p2995
S'2307+325'
p2996
sS'0820+296'
p2997
S'0823+294'
p2998
sS'2236+124'
p2999
S'2238+127'
p3000
sS'1430-178'
p3001
S'1432-180'
p3002
sS'1726+455'
p3003
S'1727+455'
p3004
sS'0710+439'
p3005
S'0713+438'
p3006
sS'0354+559'
p3007
S'0358+561'
p3008
sS'2131-021'
p3009
S'2134-018'
p3010
sS'1143+590'
p3011
S'1146+588'
p3012
sS'0711+146'
p3013
S'0714+146'
p3014
sS'1720+102'
p3015
S'1722+102'
p3016
sS'0222+185'
p3017
S'0225+187'
p3018
sS'2305+145'
p3019
S'2307+148'
p3020
sS'1214+588'
p3021
S'1217+585'
p3022
sS'1234+396'
p3023
S'1236+393'
p3024
sS'0722+145'
p3025
S'0725+144'
p3026
sS'0748+126'
p3027
S'0750+125'
p3028
sS'0003-003'
p3029
S'0006-000'
p3030
sS'0733+261'
p3031
S'0736+260'
p3032
sS'1727+386'
p3033
S'1728+386'
p3034
sS'1438+501'
p3035
S'1439+499'
p3036
sS'1511+238'
p3037
S'1513+236'
p3038
sS'1928+738'
p3039
S'1927+739'
p3040
sS'0430+289'
p3041
S'0433+290'
p3042
sS'0454+550'
p3043
S'0458+551'
p3044
sS'0038+328'
p3045
S'0040+331'
p3046
sS'1335+552'
p3047
S'1337+550'
p3048
sS'1119+183'
p3049
S'1122+180'
p3050
sS'0748+019'
p3051
S'0751+018'
p3052
sS'1604+315'
p3053
S'1606+314'
p3054
sS'0951+268'
p3055
S'0954+266'
p3056
sS'0441+106'
p3057
S'0444+107'
p3058
sS'1413+349'
p3059
S'1416+347'
p3060
sS'1030+398'
p3061
S'1033+395'
p3062
sS'0321+467'
p3063
S'0325+469'
p3064
sS'2118+053'
p3065
S'2120+055'
p3066
sS'0836+426'
p3067
S'0839+424'
p3068
sS'1055+018'
p3069
S'1058+015'
p3070
sS'1146+531'
p3071
S'1148+529'
p3072
sS'2058-425'
p3073
S'2101-423'
p3074
sS'1722+401'
p3075
S'1724+400'
p3076
sS'1937-101'
p3077
S'1939-100'
p3078
sS'1959+650'
p3079
S'1959+651'
p3080
sS'2306+095'
p3081
S'2308+097'
p3082
sS'0928+008'
p3083
S'0930+005'
p3084
sS'1824+185'
p3085
S'1826+185'
p3086
sS'1505+428'
p3087
S'1506+426'
p3088
sS'1844+081'
p3089
S'1847+081'
p3090
sS'0227+403'
p3091
S'0230+405'
p3092
sS'0745+241'
p3093
S'0748+240'
p3094
sS'0610+171'
p3095
S'0613+171'
p3096
sS'1341+144'
p3097
S'1344+141'
p3098
sS'1116-462'
p3099
S'1118-465'
p3100
sS'1948+505'
p3101
S'1949+506'
p3102
sS'0642-349'
p3103
S'0644-349'
p3104
sS'0844+463'
p3105
S'0847+461'
p3106
sS'0457+024'
p3107
S'0459+024'
p3108
sS'0201+113'
p3109
S'0203+115'
p3110
sS'1035+046'
p3111
S'1037+044'
p3112
sS'2326+082'
p3113
S'2329+085'
p3114
sS'0027+056'
p3115
S'0029+059'
p3116
sS'1444+175'
p3117
S'1446+173'
p3118
sS'0209+168'
p3119
S'0211+171'
p3120
sS'0059+163'
p3121
S'0101+166'
p3122
sS'0500+443'
p3123
S'0503+444'
p3124
sS'1424+366'
p3125
S'1426+364'
p3126
sS'0453-206'
p3127
S'0455-205'
p3128
sS'1505+044'
p3129
S'1507+042'
p3130
sS'1656+347'
p3131
S'1658+347'
p3132
sS'0920+416'
p3133
S'0923+414'
p3134
sS'0929+533'
p3135
S'0932+531'
p3136
sS'0342+147'
p3137
S'0345+148'
p3138
sS'0022+390'
p3139
S'0025+393'
p3140
sS'0108+388'
p3141
S'0111+391'
p3142
sS'1427+543'
p3143
S'1429+541'
p3144
sS'1142-225'
p3145
S'1145-228'
p3146
sS'1156+295'
p3147
S'1159+292'
p3148
sS'1725+123'
p3149
S'1728+122'
p3150
sS'1406-076'
p3151
S'1408-078'
p3152
sS'1055-242'
p3153
S'1057-245'
p3154
sS'2126-185'
p3155
S'2129-183'
p3156
sS'1519-273'
p3157
S'1522-275'
p3158
sS'0743-006'
p3159
S'0745-007'
p3160
sS'0231+045'
p3161
S'0234+047'
p3162
sS'0539-057'
p3163
S'0541-056'
p3164
sS'0454-234'
p3165
S'0457-234'
p3166
sS'0423+233'
p3167
S'0426+234'
p3168
sS'2000+148'
p3169
S'2002+150'
p3170
sS'1258+087'
p3171
S'1300+084'
p3172
sS'1751+441'
p3173
S'1753+441'
p3174
sS'1947+079'
p3175
S'1950+081'
p3176
sS'1244-255'
p3177
S'1246-257'
p3178
sS'1657-261'
p3179
S'1700-261'
p3180
sS'0105+129'
p3181
S'0107+132'
p3182
sS'2127+085'
p3183
S'2130+087'
p3184
sS'0629+160'
p3185
S'0632+159'
p3186
sS'1611+343'
p3187
S'1613+342'
p3188
sS'0159+723'
p3189
S'0203+725'
p3190
sS'0642+214'
p3191
S'0645+213'
p3192
sS'0159-117'
p3193
S'0201-115'
p3194
sS'1058+393'
p3195
S'1101+390'
p3196
sS'0400+258'
p3197
S'0403+260'
p3198
sS'0306+274'
p3199
S'0309+276'
p3200
sS'0406-127'
p3201
S'0409-126'
p3202
sS'0834-196'
p3203
S'0837-198'
p3204
sS'1746+197'
p3205
S'1749+197'
p3206
sS'0743+259'
p3207
S'0746+258'
p3208
sS'0816+054'
p3209
S'0818+052'
p3210
sS'2112+283'
p3211
S'2114+285'
p3212
sS'0122+278'
p3213
S'0124+280'
p3214
sS'0327-241'
p3215
S'0329-239'
p3216
sS'0946+181'
p3217
S'0949+178'
p3218
sS'0127+084'
p3219
S'0130+087'
p3220
sS'1204+124'
p3221
S'1207+121'
p3222
sS'1640+254'
p3223
S'1642+253'
p3224
sS'1250+568'
p3225
S'1252+565'
p3226
sS'0624-058'
p3227
S'0627-058'
p3228
sS'0213-026'
p3229
S'0215-023'
p3230
sS'0130+691'
p3231
S'0134+694'
p3232
sS'0841+386'
p3233
S'0844+385'
p3234
sS'0609+413'
p3235
S'0612+413'
p3236
sS'0748-440'
p3237
S'0749-442'
p3238
sS'1156-094'
p3239
S'1159-096'
p3240
sS'0316+413'
p3241
S'0319+415'
p3242
sS'0006+061'
p3243
S'0009+064'
p3244
sS'1013+127'
p3245
S'1015+124'
p3246
sS'0917+449'
p3247
S'0920+446'
p3248
sS'1717+083'
p3249
S'1719+082'
p3250
sS'0326+349'
p3251
S'0329+351'
p3252
sS'1302-102'
p3253
S'1305-105'
p3254
sS'0830+605'
p3255
S'0834+603'
p3256
sS'1204+057'
p3257
S'1206+054'
p3258
sS'0920-397'
p3259
S'0922-399'
p3260
sS'2104+763'
p3261
S'2104+765'
p3262
sS'0009+081'
p3263
S'0011+083'
p3264
sS'1622-310'
p3265
S'1625-311'
p3266
sS'1737+339'
p3267
S'1739+339'
p3268
sS'0629-418'
p3269
S'0631-419'
p3270
sS'1922+333'
p3271
S'1924+334'
p3272
sS'0415+398'
p3273
S'0419+399'
p3274
sS'0659+445'
p3275
S'0702+445'
p3276
sS'1133+704'
p3277
S'1136+701'
p3278
sS'1846+322'
p3279
S'1848+323'
p3280
sS'1846+326'
p3281
S'1848+327'
p3282
sS'0434-188'
p3283
S'0437-187'
p3284
sS'2300+638'
p3285
S'2302+640'
p3286
sS'1717+178'
p3287
S'1719+177'
p3288
sS'1215+113'
p3289
S'1218+110'
p3290
sS'0830+040'
p3291
S'0833+038'
p3292
sS'0528-250'
p3293
S'0530-250'
p3294
sS'0716+714'
p3295
S'0721+713'
p3296
sS'1638+540'
p3297
S'1639+539'
p3298
sS'0109+351'
p3299
S'0112+353'
p3300
sS'1651+312'
p3301
S'1653+311'
p3302
sS'0008-421'
p3303
S'0010-418'
p3304
sS'0426+273'
p3305
S'0429+274'
p3306
sS'1504-166'
p3307
S'1507-168'
p3308
sS'0721-071'
p3309
S'0724-072'
p3310
sS'0628+203'
p3311
S'0631+203'
p3312
sS'2247+140'
p3313
S'2250+143'
p3314
sS'1307+121'
p3315
S'1309+119'
p3316
sS'1352-104'
p3317
S'1354-106'
p3318
sS'0537+531'
p3319
S'0541+532'
p3320
sS'0041+660'
p3321
S'0044+663'
p3322
sS'0528+134'
p3323
S'0530+135'
p3324
sS'1839+548'
p3325
S'1840+548'
p3326
sS'1106+380'
p3327
S'1109+377'
p3328
sS'1208+186'
p3329
S'1211+183'
p3330
sS'1103+284'
p3331
S'1106+282'
p3332
sS'1354+195'
p3333
S'1357+193'
p3334
sS'0129+431'
p3335
S'0132+434'
p3336
sS'0419+308'
p3337
S'0422+309'
p3338
sS'1221+464'
p3339
S'1223+461'
p3340
sS'0403-132'
p3341
S'0405-131'
p3342
sS'1714-397'
p3343
S'1717-398'
p3344
sS'0201+365'
p3345
S'0204+368'
p3346
sS'2325-150'
p3347
S'2327-147'
p3348
sS'2137+170'
p3349
S'2139+173'
p3350
sS'2155-152'
p3351
S'2158-150'
p3352
sS'1327+321'
p3353
S'1329+319'
p3354
sS'0729-222'
p3355
S'0731-224'
p3356
sS'1736+324'
p3357
S'1738+324'
p3358
sS'0941+522'
p3359
S'0944+520'
p3360
sS'1212+171'
p3361
S'1215+169'
p3362
sS'0851+719'
p3363
S'0856+717'
p3364
sS'0420+347'
p3365
S'0423+348'
p3366
sS'2259+058'
p3367
S'2301+061'
p3368
sS'2007+131'
p3369
S'2009+133'
p3370
sS'0317+188'
p3371
S'0319+190'
p3372
sS'1235+076'
p3373
S'1238+073'
p3374
sS'0006+397'
p3375
S'0009+400'
p3376
sS'0259+121'
p3377
S'0302+123'
p3378
sS'1034-293'
p3379
S'1037-295'
p3380
sS'2224+006'
p3381
S'2226+008'
p3382
sS'0113-118'
p3383
S'0116-116'
p3384
sS'1025+031'
p3385
S'1028+029'
p3386
sS'1042+071'
p3387
S'1044+069'
p3388
sS'2251+244'
p3389
S'2254+247'
p3390
sS'0056+579'
p3391
S'0059+582'
p3392
sS'2245-328'
p3393
S'2248-325'
p3394
sS'2221+625'
p3395
S'2223+628'
p3396
sS'1931+149'
p3397
S'1933+150'
p3398
sS'1648+084'
p3399
S'1650+084'
p3400
sS'0224+671'
p3401
S'0228+673'
p3402
sS'1543+517'
p3403
S'1545+515'
p3404
sS'1013+054'
p3405
S'1016+052'
p3406
sS'2201+624'
p3407
S'2203+626'
p3408
sS'2047+039'
p3409
S'2050+041'
p3410
sS'0402+379'
p3411
S'0405+380'
p3412
sS'2004+064'
p3413
S'2007+066'
p3414
sS'0130-171'
p3415
S'0132-169'
p3416
sS'0755+379'
p3417
S'0758+377'
p3418
sS'1021-006'
p3419
S'1024-008'
p3420
sS'0605+480'
p3421
S'0609+480'
p3422
sS'0421+683'
p3423
S'0426+684'
p3424
sS'0830+425'
p3425
S'0833+424'
p3426
sS'1059+282'
p3427
S'1102+279'
p3428
sS'1012+232'
p3429
S'1014+230'
p3430
sS'1627+151'
p3431
S'1629+150'
p3432
sS'0521-365'
p3433
S'0522-364'
p3434
sS'2252+129'
p3435
S'2255+132'
p3436
sS'0807+417'
p3437
S'0810+415'
p3438
sS'1354-152'
p3439
S'1357-154'
p3440
sS'1926+611'
p3441
S'1927+612'
p3442
sS'0754+100'
p3443
S'0757+099'
p3444
sS'1614+051'
p3445
S'1616+049'
p3446
sS'1121+238'
p3447
S'1124+236'
p3448
sS'1038+212'
p3449
S'1041+210'
p3450
sS'1802+110'
p3451
S'1805+110'
p3452
sS'0805-077'
p3453
S'0808-078'
p3454
sS'2007+659'
p3455
S'2007+661'
p3456
sS'1121+234'
p3457
S'1124+231'
p3458
sS'1022+194'
p3459
S'1024+192'
p3460
sS'1015+057'
p3461
S'1018+055'
p3462
sS'2231+425'
p3463
S'2233+427'
p3464
sS'0409+188'
p3465
S'0412+189'
p3466
sS'0605-085'
p3467
S'0607-085'
p3468
sS'1509+054'
p3469
S'1511+053'
p3470
sS'2142+110'
p3471
S'2145+112'
p3472
sS'1155+169'
p3473
S'1157+166'
p3474
sS'0022-423'
p3475
S'0024-420'
p3476
sS'2126-158'
p3477
S'2129-156'
p3478
sS'1053+815'
p3479
S'1058+812'
p3480
sS'1049+215'
p3481
S'1051+213'
p3482
sS'1756+237'
p3483
S'1759+237'
p3484
sS'0731+050'
p3485
S'0733+049'
p3486
sS'0633+596'
p3487
S'0638+595'
p3488
sS'1156-221'
p3489
S'1159-224'
p3490
sS'1107+443'
p3491
S'1110+440'
p3492
sS'0550+356'
p3493
S'0554+356'
p3494
sS'0055+300'
p3495
S'0057+303'
p3496
sS'0251+785'
p3497
S'0257+787'
p3498
sS'0016-129'
p3499
S'0018-127'
p3500
sS'1310+487'
p3501
S'1312+484'
p3502
sS'1207+260'
p3503
S'1209+257'
p3504
sS'0358+040'
p3505
S'0401+042'
p3506
sS'0733+300'
p3507
S'0736+299'
p3508
sS'1510+835'
p3509
S'1506+833'
p3510
sS'2040+127'
p3511
S'2043+129'
p3512
sS'2344+514'
p3513
S'2347+517'
p3514
sS'0300+470'
p3515
S'0303+472'
p3516
sS'0144+487'
p3517
S'0147+489'
p3518
sS'1514+197'
p3519
S'1516+195'
p3520
sS'1322+835'
p3521
S'1321+832'
p3522
sS'0407+075'
p3523
S'0407+077'
p3524
sS'0640+090'
p3525
S'0643+089'
p3526
sS'0153+222'
p3527
S'0155+225'
p3528
sS'0149+370'
p3529
S'0152+372'
p3530
sS'1136-135'
p3531
S'1139-138'
p3532
sS'0151+081'
p3533
S'0154+083'
p3534
sS'0855+143'
p3535
S'0858+141'
p3536
sS'0422-380'
p3537
S'0424-379'
p3538
sS'2104+248'
p3539
S'2106+250'
p3540
sS'1904+013'
p3541
S'1907+014'
p3542
sS'1637+574'
p3543
S'1638+573'
p3544
sS'0518+705'
p3545
S'0524+705'
p3546
sS'2311-452'
p3547
S'2314-449'
p3548
sS'1825+344'
p3549
S'1826+345'
p3550
sS'1734+063'
p3551
S'1737+063'
p3552
sS'0458-020'
p3553
S'0501-019'
p3554
sS'0014+813'
p3555
S'0017+815'
p3556
sS'0752+639'
p3557
S'0756+637'
p3558
sS'1506+591'
p3559
S'1507+589'
p3560
sS'1437+624'
p3561
S'1438+621'
p3562
sS'1536+046'
p3563
S'1539+045'
p3564
sS'0602+405'
p3565
S'0605+405'
p3566
sS'2037+511'
p3567
S'2038+513'
p3568
sS'1013+208'
p3569
S'1016+206'
p3570
sS'1854+061'
p3571
S'1856+061'
p3572
sS'0229+131'
p3573
S'0231+133'
p3574
sS'0157+251'
p3575
S'0200+253'
p3576
sS'0203+625'
p3577
S'0207+627'
p3578
sS'2214+350'
p3579
S'2216+353'
p3580
sS'0742+318'
p3581
S'0745+317'
p3582
sS'1246+586'
p3583
S'1248+583'
p3584
sS'0759+252'
p3585
S'0802+251'
p3586
sS'0707-036'
p3587
S'0710-037'
p3588
sS'1637+626'
p3589
S'1638+625'
p3590
sS'2146+608'
p3591
S'2148+611'
p3592
sS'1422-297'
p3593
S'1425-299'
p3594
sS'1634+213'
p3595
S'1636+212'
p3596
sS'0503+466'
p3597
S'0507+467'
p3598
sS'0836+710'
p3599
S'0841+708'
p3600
sS'0354+231'
p3601
S'0357+233'
p3602
sS'1217+713'
p3603
S'1220+710'
p3604
sS'0728+249'
p3605
S'0731+248'
p3606
sS'1107+607'
p3607
S'1110+604'
p3608
sS'1217+023'
p3609
S'1220+020'
p3610
sS'0346-279'
p3611
S'0348-278'
p3612
sS'0007+106'
p3613
S'0010+109'
p3614
sS'1700+685'
p3615
S'1700+685'
p3616
sS'0428+205'
p3617
S'0431+206'
p3618
sS'1910+052'
p3619
S'1912+053'
p3620
sS'2255+416'
p3621
S'2257+419'
p3622
sS'1441+252'
p3623
S'1443+250'
p3624
sS'2215+316'
p3625
S'2217+319'
p3626
sS'0008-264'
p3627
S'0011-262'
p3628
sS'1312+126'
p3629
S'1315+123'
p3630
sS'2330+387'
p3631
S'2333+390'
p3632
sS'0306+102'
p3633
S'0309+104'
p3634
sS'1706-174'
p3635
S'1709-174'
p3636
sS'1430-155'
p3637
S'1433-158'
p3638
sS'0510+559'
p3639
S'0514+560'
p3640
sS'1307+010'
p3641
S'1310+007'
p3642
sS'1147+245'
p3643
S'1150+242'
p3644
sS'1237-101'
p3645
S'1239-103'
p3646
sS'1629+495'
p3647
S'1631+494'
p3648
sS'1230+486'
p3649
S'1232+483'
p3650
sS'0345+337'
p3651
S'0348+338'
p3652
sS'0110+318'
p3653
S'0112+321'
p3654
sS'0440-003'
p3655
S'0442-002'
p3656
sS'1432+422'
p3657
S'1434+420'
p3658
sS'1321+410'
p3659
S'1324+408'
p3660
sS'0102+480'
p3661
S'0105+483'
p3662
sS'0823+033'
p3663
S'0825+031'
p3664
sS'0039-445'
p3665
S'0042-442'
p3666
sS'1427+634'
p3667
S'1429+632'
p3668
sS'1725+044'
p3669
S'1728+044'
p3670
sS'0733+646'
p3671
S'0737+645'
p3672
sS'1036-154'
p3673
S'1039-156'
p3674
sS'0047+023'
p3675
S'0049+026'
p3676
sS'0019-000'
p3677
S'0022+002'
p3678
sS'1003+830'
p3679
S'1010+828'
p3680
sS'1706+006'
p3681
S'1708+005'
p3682
sS'1921-293'
p3683
S'1924-292'
p3684
sS'0724+571'
p3685
S'0728+570'
p3686
sS'2338+000'
p3687
S'2341+003'
p3688
sS'1407+022'
p3689
S'1410+020'
p3690
sS'1239-044'
p3691
S'1242-047'
p3692
sS'1740-309'
p3693
S'1743-309'
p3694
sS'0743+277'
p3695
S'0746+275'
p3696
sS'1646+411'
p3697
S'1648+410'
p3698
sS'1739+522'
p3699
S'1740+521'
p3700
sS'1207-319'
p3701
S'1209-322'
p3702
sS'1657+054'
p3703
S'1700+053'
p3704
sS'0302+173'
p3705
S'0305+175'
p3706
sS'1557+032'
p3707
S'1559+030'
p3708
sS'0204+316'
p3709
S'0207+318'
p3710
sS'1155+486'
p3711
S'1158+484'
p3712
sS'1351-018'
p3713
S'1354-021'
p3714
sS'0003+380'
p3715
S'0005+383'
p3716
sS'0833-450'
p3717
S'0835-451'
p3718
sS'2149-306'
p3719
S'2151-304'
p3720
sS'1514-241'
p3721
S'1517-243'
p3722
s.