(dp0
S'0420-014'
p1
(S''
p2
S'http://www.astro.lsa.umich.edu/obs/radiotel/gif/DATA_0420'
p3
tp4
sS'1226+023'
p5
(S'3C 273'
p6
S'http://www.astro.lsa.umich.edu/obs/radiotel/gif/DATA_3C273'
p7
tp8
sS'0316+413'
p9
(S'3C 84'
p10
S'http://www.astro.lsa.umich.edu/obs/radiotel/gif/DATA_3C84'
p11
tp12
sS'1308+326'
p13
(g2
S'http://www.astro.lsa.umich.edu/obs/radiotel/gif/DATA_1308'
p14
tp15
sS'1641+399'
p16
(S'3C 345'
p17
S'http://www.astro.lsa.umich.edu/obs/radiotel/gif/DATA_3C345'
p18
tp19
sS'1510-089'
p20
(g2
S'http://www.astro.lsa.umich.edu/obs/radiotel/gif/DATA_1510'
p21
tp22
sS'1749+096'
p23
(S'OT 081'
p24
S'http://www.astro.lsa.umich.edu/obs/radiotel/gif/DATA_OT081'
p25
tp26
sS'1633+382'
p27
(g2
S'http://www.astro.lsa.umich.edu/obs/radiotel/gif/DATA_1633'
p28
tp29
sS'1253-055'
p30
(S'3C 279'
p31
S'http://www.astro.lsa.umich.edu/obs/radiotel/gif/DATA_3C279'
p32
tp33
sS'0727-115'
p34
(g2
S'http://www.astro.lsa.umich.edu/obs/radiotel/gif/DATA_0727'
p35
tp36
sS'0235+164'
p37
(g2
S'http://www.astro.lsa.umich.edu/obs/radiotel/gif/DATA_0235'
p38
tp39
sS'2200+420'
p40
(S'BL LAC'
p41
S'http://www.astro.lsa.umich.edu/obs/radiotel/gif/DATA_BL'
p42
tp43
sS'0528+134'
p44
(g2
S'http://www.astro.lsa.umich.edu/obs/radiotel/gif/DATA_0528'
p45
tp46
sS'2022-077'
p47
(g2
S'http://www.astro.lsa.umich.edu/obs/radiotel/gif/DATA_2022'
p48
tp49
sS'1502+106'
p50
(S'OR 103'
p51
S'http://www.astro.lsa.umich.edu/obs/radiotel/gif/DATA_1502'
p52
tp53
sS'1127-145'
p54
(g2
S'http://www.astro.lsa.umich.edu/obs/radiotel/gif/DATA_1127'
p55
tp56
sS'2251+158'
p57
(S'3C 454.3'
p58
S'http://www.astro.lsa.umich.edu/obs/radiotel/gif/DATA_3C454.3'
p59
tp60
sS'0454-234'
p61
(S'OF-292'
p62
S'http://www.astro.lsa.umich.edu/obs/radiotel/gif/DATA_0454'
p63
tp64
sS'0805-077'
p65
(g2
S'http://www.astro.lsa.umich.edu/obs/radiotel/gif/DATA_0805'
p66
tp67
sS'0215+015'
p68
(S'OD 026'
p69
S'http://www.astro.lsa.umich.edu/obs/radiotel/gif/DATA_0215'
p70
tp71
sS'2230+114'
p72
(S'CTA 102'
p73
S'http://www.astro.lsa.umich.edu/obs/radiotel/gif/DATA_CTA102'
p74
tp75
sS'0716+714'
p76
(g2
S'http://www.astro.lsa.umich.edu/obs/radiotel/gif/DATA_0716'
p77
tp78
sS'0851+202'
p79
(S'OJ 287'
p80
S'http://www.astro.lsa.umich.edu/obs/radiotel/gif/DATA_OJ287'
p81
tp82
sS'0133+476'
p83
(S'DA 55'
p84
S'http://www.astro.lsa.umich.edu/obs/radiotel/gif/DATA_DA55'
p85
tp86
s.